
read_tran:	file format mach-o 64-bit x86-64

Disassembly of section __TEXT,__text:

0000000100004250 <__Z8state2idPKaii>:
100004250: 55                          	pushq	%rbp
100004251: 48 89 e5                    	movq	%rsp, %rbp
100004254: 48 83 ec 30                 	subq	$48, %rsp
100004258: 48 89 7d f8                 	movq	%rdi, -8(%rbp)
10000425c: 89 75 f4                    	movl	%esi, -12(%rbp)
10000425f: 89 55 f0                    	movl	%edx, -16(%rbp)
100004262: c7 45 ec 01 00 00 00        	movl	$1, -20(%rbp)
100004269: c7 45 e8 00 00 00 00        	movl	$0, -24(%rbp)
100004270: 8b 45 f4                    	movl	-12(%rbp), %eax
100004273: 89 45 e4                    	movl	%eax, -28(%rbp)
100004276: 8b 45 e4                    	movl	-28(%rbp), %eax
100004279: 8b 4d f4                    	movl	-12(%rbp), %ecx
10000427c: 03 4d f0                    	addl	-16(%rbp), %ecx
10000427f: 39 c8                       	cmpl	%ecx, %eax
100004281: 0f 8c 05 00 00 00           	jl	0x10000428c <__Z8state2idPKaii+0x3c>
100004287: e9 7b 00 00 00              	jmp	0x100004307 <__Z8state2idPKaii+0xb7>
10000428c: 48 8b 45 f8                 	movq	-8(%rbp), %rax
100004290: 48 63 4d e4                 	movslq	-28(%rbp), %rcx
100004294: 48 01 c8                    	addq	%rcx, %rax
100004297: 48 89 45 d8                 	movq	%rax, -40(%rbp)
10000429b: 48 c1 e8 03                 	shrq	$3, %rax
10000429f: 48 b9 00 00 00 00 00 10 00 00       	movabsq	$17592186044416, %rcx ## imm = 0x100000000000
1000042a9: 48 09 c8                    	orq	%rcx, %rax
1000042ac: 8a 00                       	movb	(%rax), %al
1000042ae: 88 45 e3                    	movb	%al, -29(%rbp)
1000042b1: 3c 00                       	cmpb	$0, %al
1000042b3: 0f 84 1e 00 00 00           	je	0x1000042d7 <__Z8state2idPKaii+0x87>
1000042b9: 8a 4d e3                    	movb	-29(%rbp), %cl
1000042bc: 48 8b 45 d8                 	movq	-40(%rbp), %rax
1000042c0: 48 83 e0 07                 	andq	$7, %rax
1000042c4: 38 c8                       	cmpb	%cl, %al
1000042c6: 0f 8c 0b 00 00 00           	jl	0x1000042d7 <__Z8state2idPKaii+0x87>
1000042cc: 48 8b 7d d8                 	movq	-40(%rbp), %rdi
1000042d0: e8 c7 38 00 00              	callq	0x100007b9c <_realloc+0x100007b9c>
1000042d5: 0f 0b                       	ud2
1000042d7: 48 8b 45 d8                 	movq	-40(%rbp), %rax
1000042db: 0f be 00                    	movsbl	(%rax), %eax
1000042de: 83 f8 01                    	cmpl	$1, %eax
1000042e1: 0f 85 09 00 00 00           	jne	0x1000042f0 <__Z8state2idPKaii+0xa0>
1000042e7: 8b 45 ec                    	movl	-20(%rbp), %eax
1000042ea: 03 45 e8                    	addl	-24(%rbp), %eax
1000042ed: 89 45 e8                    	movl	%eax, -24(%rbp)
1000042f0: 8b 45 ec                    	movl	-20(%rbp), %eax
1000042f3: c1 e0 01                    	shll	$1, %eax
1000042f6: 89 45 ec                    	movl	%eax, -20(%rbp)
1000042f9: 8b 45 e4                    	movl	-28(%rbp), %eax
1000042fc: 83 c0 01                    	addl	$1, %eax
1000042ff: 89 45 e4                    	movl	%eax, -28(%rbp)
100004302: e9 6f ff ff ff              	jmp	0x100004276 <__Z8state2idPKaii+0x26>
100004307: 8b 45 e8                    	movl	-24(%rbp), %eax
10000430a: 48 83 c4 30                 	addq	$48, %rsp
10000430e: 5d                          	popq	%rbp
10000430f: c3                          	retq

0000000100004310 <_test_buffer>:
100004310: 55                          	pushq	%rbp
100004311: 48 89 e5                    	movq	%rsp, %rbp
100004314: 5d                          	popq	%rbp
100004315: c3                          	retq
100004316: 66 2e 0f 1f 84 00 00 00 00 00       	nopw	%cs:(%rax,%rax)

0000000100004320 <_Hamtion_buffer>:
100004320: 55                          	pushq	%rbp
100004321: 48 89 e5                    	movq	%rsp, %rbp
100004324: 48 81 ec f0 00 00 00        	subq	$240, %rsp
10000432b: 8b 45 38                    	movl	56(%rbp), %eax
10000432e: 8b 45 30                    	movl	48(%rbp), %eax
100004331: 48 8b 45 28                 	movq	40(%rbp), %rax
100004335: 8b 45 20                    	movl	32(%rbp), %eax
100004338: 8b 45 18                    	movl	24(%rbp), %eax
10000433b: 48 8b 45 10                 	movq	16(%rbp), %rax
10000433f: 89 7d fc                    	movl	%edi, -4(%rbp)
100004342: 89 75 f8                    	movl	%esi, -8(%rbp)
100004345: 48 89 55 f0                 	movq	%rdx, -16(%rbp)
100004349: 48 89 4d e8                 	movq	%rcx, -24(%rbp)
10000434d: 44 89 45 e4                 	movl	%r8d, -28(%rbp)
100004351: 44 89 4d e0                 	movl	%r9d, -32(%rbp)
100004355: 8b 45 fc                    	movl	-4(%rbp), %eax
100004358: 89 45 dc                    	movl	%eax, -36(%rbp)
10000435b: 48 8d 05 be 80 00 00        	leaq	32958(%rip), %rax       ## 0x10000c420 <_h>
100004362: 48 c1 e8 03                 	shrq	$3, %rax
100004366: 48 b9 00 00 00 00 00 10 00 00       	movabsq	$17592186044416, %rcx ## imm = 0x100000000000
100004370: 48 09 c8                    	orq	%rcx, %rax
100004373: 80 38 00                    	cmpb	$0, (%rax)
100004376: 0f 84 0e 00 00 00           	je	0x10000438a <_Hamtion_buffer+0x6a>
10000437c: 48 8d 3d 9d 80 00 00        	leaq	32925(%rip), %rdi       ## 0x10000c420 <_h>
100004383: e8 20 38 00 00              	callq	0x100007ba8 <_realloc+0x100007ba8>
100004388: 0f 0b                       	ud2
10000438a: 48 8b 05 8f 80 00 00        	movq	32911(%rip), %rax       ## 0x10000c420 <_h>
100004391: 48 89 45 d0                 	movq	%rax, -48(%rbp)
100004395: 48 c1 e8 03                 	shrq	$3, %rax
100004399: 48 b9 00 00 00 00 00 10 00 00       	movabsq	$17592186044416, %rcx ## imm = 0x100000000000
1000043a3: 48 09 c8                    	orq	%rcx, %rax
1000043a6: 8a 00                       	movb	(%rax), %al
1000043a8: 88 45 db                    	movb	%al, -37(%rbp)
1000043ab: 3c 00                       	cmpb	$0, %al
1000043ad: 0f 84 22 00 00 00           	je	0x1000043d5 <_Hamtion_buffer+0xb5>
1000043b3: 8a 4d db                    	movb	-37(%rbp), %cl
1000043b6: 48 8b 45 d0                 	movq	-48(%rbp), %rax
1000043ba: 48 83 e0 07                 	andq	$7, %rax
1000043be: 48 83 c0 03                 	addq	$3, %rax
1000043c2: 38 c8                       	cmpb	%cl, %al
1000043c4: 0f 8c 0b 00 00 00           	jl	0x1000043d5 <_Hamtion_buffer+0xb5>
1000043ca: 48 8b 7d d0                 	movq	-48(%rbp), %rdi
1000043ce: e8 e1 37 00 00              	callq	0x100007bb4 <_realloc+0x100007bb4>
1000043d3: 0f 0b                       	ud2
1000043d5: 48 8b 45 d0                 	movq	-48(%rbp), %rax
1000043d9: 8b 4d dc                    	movl	-36(%rbp), %ecx
1000043dc: 89 08                       	movl	%ecx, (%rax)
1000043de: 8b 45 f8                    	movl	-8(%rbp), %eax
1000043e1: 89 45 bc                    	movl	%eax, -68(%rbp)
1000043e4: 48 8b 05 35 80 00 00        	movq	32821(%rip), %rax       ## 0x10000c420 <_h>
1000043eb: 48 83 c0 04                 	addq	$4, %rax
1000043ef: 48 89 45 c0                 	movq	%rax, -64(%rbp)
1000043f3: 48 c1 e8 03                 	shrq	$3, %rax
1000043f7: 48 b9 00 00 00 00 00 10 00 00       	movabsq	$17592186044416, %rcx ## imm = 0x100000000000
100004401: 48 09 c8                    	orq	%rcx, %rax
100004404: 8a 00                       	movb	(%rax), %al
100004406: 88 45 cf                    	movb	%al, -49(%rbp)
100004409: 3c 00                       	cmpb	$0, %al
10000440b: 0f 84 22 00 00 00           	je	0x100004433 <_Hamtion_buffer+0x113>
100004411: 8a 4d cf                    	movb	-49(%rbp), %cl
100004414: 48 8b 45 c0                 	movq	-64(%rbp), %rax
100004418: 48 83 e0 07                 	andq	$7, %rax
10000441c: 48 83 c0 03                 	addq	$3, %rax
100004420: 38 c8                       	cmpb	%cl, %al
100004422: 0f 8c 0b 00 00 00           	jl	0x100004433 <_Hamtion_buffer+0x113>
100004428: 48 8b 7d c0                 	movq	-64(%rbp), %rdi
10000442c: e8 83 37 00 00              	callq	0x100007bb4 <_realloc+0x100007bb4>
100004431: 0f 0b                       	ud2
100004433: 48 8b 45 c0                 	movq	-64(%rbp), %rax
100004437: 8b 4d bc                    	movl	-68(%rbp), %ecx
10000443a: 89 08                       	movl	%ecx, (%rax)
10000443c: 48 63 7d 30                 	movslq	48(%rbp), %rdi
100004440: 48 c1 e7 03                 	shlq	$3, %rdi
100004444: e8 cb 37 00 00              	callq	0x100007c14 <_realloc+0x100007c14>
100004449: 48 89 45 b0                 	movq	%rax, -80(%rbp)
10000444d: 48 8d 05 cc 7f 00 00        	leaq	32716(%rip), %rax       ## 0x10000c420 <_h>
100004454: 48 c1 e8 03                 	shrq	$3, %rax
100004458: 48 b9 00 00 00 00 00 10 00 00       	movabsq	$17592186044416, %rcx ## imm = 0x100000000000
100004462: 48 09 c8                    	orq	%rcx, %rax
100004465: 80 38 00                    	cmpb	$0, (%rax)
100004468: 0f 84 0e 00 00 00           	je	0x10000447c <_Hamtion_buffer+0x15c>
10000446e: 48 8d 3d ab 7f 00 00        	leaq	32683(%rip), %rdi       ## 0x10000c420 <_h>
100004475: e8 2e 37 00 00              	callq	0x100007ba8 <_realloc+0x100007ba8>
10000447a: 0f 0b                       	ud2
10000447c: 48 8b 05 9d 7f 00 00        	movq	32669(%rip), %rax       ## 0x10000c420 <_h>
100004483: 48 83 c0 08                 	addq	$8, %rax
100004487: 48 89 45 a8                 	movq	%rax, -88(%rbp)
10000448b: 48 c1 e8 03                 	shrq	$3, %rax
10000448f: 48 b9 00 00 00 00 00 10 00 00       	movabsq	$17592186044416, %rcx ## imm = 0x100000000000
100004499: 48 09 c8                    	orq	%rcx, %rax
10000449c: 80 38 00                    	cmpb	$0, (%rax)
10000449f: 0f 84 0b 00 00 00           	je	0x1000044b0 <_Hamtion_buffer+0x190>
1000044a5: 48 8b 7d a8                 	movq	-88(%rbp), %rdi
1000044a9: e8 0c 37 00 00              	callq	0x100007bba <_realloc+0x100007bba>
1000044ae: 0f 0b                       	ud2
1000044b0: 48 8b 45 a8                 	movq	-88(%rbp), %rax
1000044b4: 48 8b 4d b0                 	movq	-80(%rbp), %rcx
1000044b8: 48 89 08                    	movq	%rcx, (%rax)
1000044bb: 48 8b 05 5e 7f 00 00        	movq	32606(%rip), %rax       ## 0x10000c420 <_h>
1000044c2: 48 83 c0 08                 	addq	$8, %rax
1000044c6: 48 89 45 a0                 	movq	%rax, -96(%rbp)
1000044ca: 48 c1 e8 03                 	shrq	$3, %rax
1000044ce: 48 b9 00 00 00 00 00 10 00 00       	movabsq	$17592186044416, %rcx ## imm = 0x100000000000
1000044d8: 48 09 c8                    	orq	%rcx, %rax
1000044db: 80 38 00                    	cmpb	$0, (%rax)
1000044de: 0f 84 0b 00 00 00           	je	0x1000044ef <_Hamtion_buffer+0x1cf>
1000044e4: 48 8b 7d a0                 	movq	-96(%rbp), %rdi
1000044e8: e8 bb 36 00 00              	callq	0x100007ba8 <_realloc+0x100007ba8>
1000044ed: 0f 0b                       	ud2
1000044ef: 48 8b 45 a0                 	movq	-96(%rbp), %rax
1000044f3: 48 8b 38                    	movq	(%rax), %rdi
1000044f6: 48 8b 75 f0                 	movq	-16(%rbp), %rsi
1000044fa: 48 63 55 30                 	movslq	48(%rbp), %rdx
1000044fe: 48 c1 e2 03                 	shlq	$3, %rdx
100004502: e8 83 36 00 00              	callq	0x100007b8a <_realloc+0x100007b8a>
100004507: 8b 45 e4                    	movl	-28(%rbp), %eax
10000450a: 0f af 45 e0                 	imull	-32(%rbp), %eax
10000450e: 48 63 f8                    	movslq	%eax, %rdi
100004511: 48 c1 e7 00                 	shlq	$0, %rdi
100004515: e8 fa 36 00 00              	callq	0x100007c14 <_realloc+0x100007c14>
10000451a: 48 89 45 98                 	movq	%rax, -104(%rbp)
10000451e: 48 8d 05 fb 7e 00 00        	leaq	32507(%rip), %rax       ## 0x10000c420 <_h>
100004525: 48 c1 e8 03                 	shrq	$3, %rax
100004529: 48 b9 00 00 00 00 00 10 00 00       	movabsq	$17592186044416, %rcx ## imm = 0x100000000000
100004533: 48 09 c8                    	orq	%rcx, %rax
100004536: 80 38 00                    	cmpb	$0, (%rax)
100004539: 0f 84 0e 00 00 00           	je	0x10000454d <_Hamtion_buffer+0x22d>
10000453f: 48 8d 3d da 7e 00 00        	leaq	32474(%rip), %rdi       ## 0x10000c420 <_h>
100004546: e8 5d 36 00 00              	callq	0x100007ba8 <_realloc+0x100007ba8>
10000454b: 0f 0b                       	ud2
10000454d: 48 8b 05 cc 7e 00 00        	movq	32460(%rip), %rax       ## 0x10000c420 <_h>
100004554: 48 83 c0 10                 	addq	$16, %rax
100004558: 48 89 45 90                 	movq	%rax, -112(%rbp)
10000455c: 48 c1 e8 03                 	shrq	$3, %rax
100004560: 48 b9 00 00 00 00 00 10 00 00       	movabsq	$17592186044416, %rcx ## imm = 0x100000000000
10000456a: 48 09 c8                    	orq	%rcx, %rax
10000456d: 80 38 00                    	cmpb	$0, (%rax)
100004570: 0f 84 0b 00 00 00           	je	0x100004581 <_Hamtion_buffer+0x261>
100004576: 48 8b 7d 90                 	movq	-112(%rbp), %rdi
10000457a: e8 3b 36 00 00              	callq	0x100007bba <_realloc+0x100007bba>
10000457f: 0f 0b                       	ud2
100004581: 48 8b 45 90                 	movq	-112(%rbp), %rax
100004585: 48 8b 4d 98                 	movq	-104(%rbp), %rcx
100004589: 48 89 08                    	movq	%rcx, (%rax)
10000458c: 48 8b 05 8d 7e 00 00        	movq	32397(%rip), %rax       ## 0x10000c420 <_h>
100004593: 48 83 c0 10                 	addq	$16, %rax
100004597: 48 89 45 88                 	movq	%rax, -120(%rbp)
10000459b: 48 c1 e8 03                 	shrq	$3, %rax
10000459f: 48 b9 00 00 00 00 00 10 00 00       	movabsq	$17592186044416, %rcx ## imm = 0x100000000000
1000045a9: 48 09 c8                    	orq	%rcx, %rax
1000045ac: 80 38 00                    	cmpb	$0, (%rax)
1000045af: 0f 84 0b 00 00 00           	je	0x1000045c0 <_Hamtion_buffer+0x2a0>
1000045b5: 48 8b 7d 88                 	movq	-120(%rbp), %rdi
1000045b9: e8 ea 35 00 00              	callq	0x100007ba8 <_realloc+0x100007ba8>
1000045be: 0f 0b                       	ud2
1000045c0: 48 8b 45 88                 	movq	-120(%rbp), %rax
1000045c4: 48 8b 38                    	movq	(%rax), %rdi
1000045c7: 48 8b 75 e8                 	movq	-24(%rbp), %rsi
1000045cb: 8b 45 e4                    	movl	-28(%rbp), %eax
1000045ce: 0f af 45 e0                 	imull	-32(%rbp), %eax
1000045d2: 48 63 d0                    	movslq	%eax, %rdx
1000045d5: 48 c1 e2 00                 	shlq	$0, %rdx
1000045d9: e8 ac 35 00 00              	callq	0x100007b8a <_realloc+0x100007b8a>
1000045de: 8b 45 18                    	movl	24(%rbp), %eax
1000045e1: 0f af 45 20                 	imull	32(%rbp), %eax
1000045e5: 48 63 f8                    	movslq	%eax, %rdi
1000045e8: 48 c1 e7 00                 	shlq	$0, %rdi
1000045ec: e8 23 36 00 00              	callq	0x100007c14 <_realloc+0x100007c14>
1000045f1: 48 89 45 80                 	movq	%rax, -128(%rbp)
1000045f5: 48 8d 05 24 7e 00 00        	leaq	32292(%rip), %rax       ## 0x10000c420 <_h>
1000045fc: 48 c1 e8 03                 	shrq	$3, %rax
100004600: 48 b9 00 00 00 00 00 10 00 00       	movabsq	$17592186044416, %rcx ## imm = 0x100000000000
10000460a: 48 09 c8                    	orq	%rcx, %rax
10000460d: 80 38 00                    	cmpb	$0, (%rax)
100004610: 0f 84 0e 00 00 00           	je	0x100004624 <_Hamtion_buffer+0x304>
100004616: 48 8d 3d 03 7e 00 00        	leaq	32259(%rip), %rdi       ## 0x10000c420 <_h>
10000461d: e8 86 35 00 00              	callq	0x100007ba8 <_realloc+0x100007ba8>
100004622: 0f 0b                       	ud2
100004624: 48 8b 05 f5 7d 00 00        	movq	32245(%rip), %rax       ## 0x10000c420 <_h>
10000462b: 48 83 c0 20                 	addq	$32, %rax
10000462f: 48 89 85 78 ff ff ff        	movq	%rax, -136(%rbp)
100004636: 48 c1 e8 03                 	shrq	$3, %rax
10000463a: 48 b9 00 00 00 00 00 10 00 00       	movabsq	$17592186044416, %rcx ## imm = 0x100000000000
100004644: 48 09 c8                    	orq	%rcx, %rax
100004647: 80 38 00                    	cmpb	$0, (%rax)
10000464a: 0f 84 0e 00 00 00           	je	0x10000465e <_Hamtion_buffer+0x33e>
100004650: 48 8b bd 78 ff ff ff        	movq	-136(%rbp), %rdi
100004657: e8 5e 35 00 00              	callq	0x100007bba <_realloc+0x100007bba>
10000465c: 0f 0b                       	ud2
10000465e: 48 8b 85 78 ff ff ff        	movq	-136(%rbp), %rax
100004665: 48 8b 4d 80                 	movq	-128(%rbp), %rcx
100004669: 48 89 08                    	movq	%rcx, (%rax)
10000466c: 48 8b 05 ad 7d 00 00        	movq	32173(%rip), %rax       ## 0x10000c420 <_h>
100004673: 48 83 c0 20                 	addq	$32, %rax
100004677: 48 89 85 70 ff ff ff        	movq	%rax, -144(%rbp)
10000467e: 48 c1 e8 03                 	shrq	$3, %rax
100004682: 48 b9 00 00 00 00 00 10 00 00       	movabsq	$17592186044416, %rcx ## imm = 0x100000000000
10000468c: 48 09 c8                    	orq	%rcx, %rax
10000468f: 80 38 00                    	cmpb	$0, (%rax)
100004692: 0f 84 0e 00 00 00           	je	0x1000046a6 <_Hamtion_buffer+0x386>
100004698: 48 8b bd 70 ff ff ff        	movq	-144(%rbp), %rdi
10000469f: e8 04 35 00 00              	callq	0x100007ba8 <_realloc+0x100007ba8>
1000046a4: 0f 0b                       	ud2
1000046a6: 48 8b 85 70 ff ff ff        	movq	-144(%rbp), %rax
1000046ad: 48 8b 38                    	movq	(%rax), %rdi
1000046b0: 48 8b 75 10                 	movq	16(%rbp), %rsi
1000046b4: 8b 45 18                    	movl	24(%rbp), %eax
1000046b7: 0f af 45 20                 	imull	32(%rbp), %eax
1000046bb: 48 63 d0                    	movslq	%eax, %rdx
1000046be: 48 c1 e2 00                 	shlq	$0, %rdx
1000046c2: e8 c3 34 00 00              	callq	0x100007b8a <_realloc+0x100007b8a>
1000046c7: 48 63 7d 38                 	movslq	56(%rbp), %rdi
1000046cb: 48 c1 e7 03                 	shlq	$3, %rdi
1000046cf: e8 40 35 00 00              	callq	0x100007c14 <_realloc+0x100007c14>
1000046d4: 48 89 85 68 ff ff ff        	movq	%rax, -152(%rbp)
1000046db: 48 8d 05 3e 7d 00 00        	leaq	32062(%rip), %rax       ## 0x10000c420 <_h>
1000046e2: 48 c1 e8 03                 	shrq	$3, %rax
1000046e6: 48 b9 00 00 00 00 00 10 00 00       	movabsq	$17592186044416, %rcx ## imm = 0x100000000000
1000046f0: 48 09 c8                    	orq	%rcx, %rax
1000046f3: 80 38 00                    	cmpb	$0, (%rax)
1000046f6: 0f 84 0e 00 00 00           	je	0x10000470a <_Hamtion_buffer+0x3ea>
1000046fc: 48 8d 3d 1d 7d 00 00        	leaq	32029(%rip), %rdi       ## 0x10000c420 <_h>
100004703: e8 a0 34 00 00              	callq	0x100007ba8 <_realloc+0x100007ba8>
100004708: 0f 0b                       	ud2
10000470a: 48 8b 05 0f 7d 00 00        	movq	32015(%rip), %rax       ## 0x10000c420 <_h>
100004711: 48 83 c0 30                 	addq	$48, %rax
100004715: 48 89 85 60 ff ff ff        	movq	%rax, -160(%rbp)
10000471c: 48 c1 e8 03                 	shrq	$3, %rax
100004720: 48 b9 00 00 00 00 00 10 00 00       	movabsq	$17592186044416, %rcx ## imm = 0x100000000000
10000472a: 48 09 c8                    	orq	%rcx, %rax
10000472d: 80 38 00                    	cmpb	$0, (%rax)
100004730: 0f 84 0e 00 00 00           	je	0x100004744 <_Hamtion_buffer+0x424>
100004736: 48 8b bd 60 ff ff ff        	movq	-160(%rbp), %rdi
10000473d: e8 78 34 00 00              	callq	0x100007bba <_realloc+0x100007bba>
100004742: 0f 0b                       	ud2
100004744: 48 8b 85 60 ff ff ff        	movq	-160(%rbp), %rax
10000474b: 48 8b 8d 68 ff ff ff        	movq	-152(%rbp), %rcx
100004752: 48 89 08                    	movq	%rcx, (%rax)
100004755: 48 8b 05 c4 7c 00 00        	movq	31940(%rip), %rax       ## 0x10000c420 <_h>
10000475c: 48 83 c0 30                 	addq	$48, %rax
100004760: 48 89 85 58 ff ff ff        	movq	%rax, -168(%rbp)
100004767: 48 c1 e8 03                 	shrq	$3, %rax
10000476b: 48 b9 00 00 00 00 00 10 00 00       	movabsq	$17592186044416, %rcx ## imm = 0x100000000000
100004775: 48 09 c8                    	orq	%rcx, %rax
100004778: 80 38 00                    	cmpb	$0, (%rax)
10000477b: 0f 84 0e 00 00 00           	je	0x10000478f <_Hamtion_buffer+0x46f>
100004781: 48 8b bd 58 ff ff ff        	movq	-168(%rbp), %rdi
100004788: e8 1b 34 00 00              	callq	0x100007ba8 <_realloc+0x100007ba8>
10000478d: 0f 0b                       	ud2
10000478f: 48 8b 85 58 ff ff ff        	movq	-168(%rbp), %rax
100004796: 48 8b 38                    	movq	(%rax), %rdi
100004799: 48 8b 75 28                 	movq	40(%rbp), %rsi
10000479d: 48 63 55 38                 	movslq	56(%rbp), %rdx
1000047a1: 48 c1 e2 03                 	shlq	$3, %rdx
1000047a5: e8 e0 33 00 00              	callq	0x100007b8a <_realloc+0x100007b8a>
1000047aa: 8b 45 e4                    	movl	-28(%rbp), %eax
1000047ad: 89 85 44 ff ff ff           	movl	%eax, -188(%rbp)
1000047b3: 48 8b 05 66 7c 00 00        	movq	31846(%rip), %rax       ## 0x10000c420 <_h>
1000047ba: 48 83 c0 18                 	addq	$24, %rax
1000047be: 48 89 85 48 ff ff ff        	movq	%rax, -184(%rbp)
1000047c5: 48 c1 e8 03                 	shrq	$3, %rax
1000047c9: 48 b9 00 00 00 00 00 10 00 00       	movabsq	$17592186044416, %rcx ## imm = 0x100000000000
1000047d3: 48 09 c8                    	orq	%rcx, %rax
1000047d6: 8a 00                       	movb	(%rax), %al
1000047d8: 88 85 57 ff ff ff           	movb	%al, -169(%rbp)
1000047de: 3c 00                       	cmpb	$0, %al
1000047e0: 0f 84 2b 00 00 00           	je	0x100004811 <_Hamtion_buffer+0x4f1>
1000047e6: 8a 8d 57 ff ff ff           	movb	-169(%rbp), %cl
1000047ec: 48 8b 85 48 ff ff ff        	movq	-184(%rbp), %rax
1000047f3: 48 83 e0 07                 	andq	$7, %rax
1000047f7: 48 83 c0 03                 	addq	$3, %rax
1000047fb: 38 c8                       	cmpb	%cl, %al
1000047fd: 0f 8c 0e 00 00 00           	jl	0x100004811 <_Hamtion_buffer+0x4f1>
100004803: 48 8b bd 48 ff ff ff        	movq	-184(%rbp), %rdi
10000480a: e8 a5 33 00 00              	callq	0x100007bb4 <_realloc+0x100007bb4>
10000480f: 0f 0b                       	ud2
100004811: 48 8b 85 48 ff ff ff        	movq	-184(%rbp), %rax
100004818: 8b 8d 44 ff ff ff           	movl	-188(%rbp), %ecx
10000481e: 89 08                       	movl	%ecx, (%rax)
100004820: 8b 45 e0                    	movl	-32(%rbp), %eax
100004823: 89 85 34 ff ff ff           	movl	%eax, -204(%rbp)
100004829: 48 8b 05 f0 7b 00 00        	movq	31728(%rip), %rax       ## 0x10000c420 <_h>
100004830: 48 83 c0 1c                 	addq	$28, %rax
100004834: 48 89 85 38 ff ff ff        	movq	%rax, -200(%rbp)
10000483b: 48 c1 e8 03                 	shrq	$3, %rax
10000483f: 48 b9 00 00 00 00 00 10 00 00       	movabsq	$17592186044416, %rcx ## imm = 0x100000000000
100004849: 48 09 c8                    	orq	%rcx, %rax
10000484c: 8a 00                       	movb	(%rax), %al
10000484e: 88 85 43 ff ff ff           	movb	%al, -189(%rbp)
100004854: 3c 00                       	cmpb	$0, %al
100004856: 0f 84 2b 00 00 00           	je	0x100004887 <_Hamtion_buffer+0x567>
10000485c: 8a 8d 43 ff ff ff           	movb	-189(%rbp), %cl
100004862: 48 8b 85 38 ff ff ff        	movq	-200(%rbp), %rax
100004869: 48 83 e0 07                 	andq	$7, %rax
10000486d: 48 83 c0 03                 	addq	$3, %rax
100004871: 38 c8                       	cmpb	%cl, %al
100004873: 0f 8c 0e 00 00 00           	jl	0x100004887 <_Hamtion_buffer+0x567>
100004879: 48 8b bd 38 ff ff ff        	movq	-200(%rbp), %rdi
100004880: e8 2f 33 00 00              	callq	0x100007bb4 <_realloc+0x100007bb4>
100004885: 0f 0b                       	ud2
100004887: 48 8b 85 38 ff ff ff        	movq	-200(%rbp), %rax
10000488e: 8b 8d 34 ff ff ff           	movl	-204(%rbp), %ecx
100004894: 89 08                       	movl	%ecx, (%rax)
100004896: 8b 45 18                    	movl	24(%rbp), %eax
100004899: 89 85 24 ff ff ff           	movl	%eax, -220(%rbp)
10000489f: 48 8b 05 7a 7b 00 00        	movq	31610(%rip), %rax       ## 0x10000c420 <_h>
1000048a6: 48 83 c0 28                 	addq	$40, %rax
1000048aa: 48 89 85 28 ff ff ff        	movq	%rax, -216(%rbp)
1000048b1: 48 c1 e8 03                 	shrq	$3, %rax
1000048b5: 48 b9 00 00 00 00 00 10 00 00       	movabsq	$17592186044416, %rcx ## imm = 0x100000000000
1000048bf: 48 09 c8                    	orq	%rcx, %rax
1000048c2: 8a 00                       	movb	(%rax), %al
1000048c4: 88 85 33 ff ff ff           	movb	%al, -205(%rbp)
1000048ca: 3c 00                       	cmpb	$0, %al
1000048cc: 0f 84 2b 00 00 00           	je	0x1000048fd <_Hamtion_buffer+0x5dd>
1000048d2: 8a 8d 33 ff ff ff           	movb	-205(%rbp), %cl
1000048d8: 48 8b 85 28 ff ff ff        	movq	-216(%rbp), %rax
1000048df: 48 83 e0 07                 	andq	$7, %rax
1000048e3: 48 83 c0 03                 	addq	$3, %rax
1000048e7: 38 c8                       	cmpb	%cl, %al
1000048e9: 0f 8c 0e 00 00 00           	jl	0x1000048fd <_Hamtion_buffer+0x5dd>
1000048ef: 48 8b bd 28 ff ff ff        	movq	-216(%rbp), %rdi
1000048f6: e8 b9 32 00 00              	callq	0x100007bb4 <_realloc+0x100007bb4>
1000048fb: 0f 0b                       	ud2
1000048fd: 48 8b 85 28 ff ff ff        	movq	-216(%rbp), %rax
100004904: 8b 8d 24 ff ff ff           	movl	-220(%rbp), %ecx
10000490a: 89 08                       	movl	%ecx, (%rax)
10000490c: 8b 45 20                    	movl	32(%rbp), %eax
10000490f: 89 85 14 ff ff ff           	movl	%eax, -236(%rbp)
100004915: 48 8b 05 04 7b 00 00        	movq	31492(%rip), %rax       ## 0x10000c420 <_h>
10000491c: 48 83 c0 2c                 	addq	$44, %rax
100004920: 48 89 85 18 ff ff ff        	movq	%rax, -232(%rbp)
100004927: 48 c1 e8 03                 	shrq	$3, %rax
10000492b: 48 b9 00 00 00 00 00 10 00 00       	movabsq	$17592186044416, %rcx ## imm = 0x100000000000
100004935: 48 09 c8                    	orq	%rcx, %rax
100004938: 8a 00                       	movb	(%rax), %al
10000493a: 88 85 23 ff ff ff           	movb	%al, -221(%rbp)
100004940: 3c 00                       	cmpb	$0, %al
100004942: 0f 84 2b 00 00 00           	je	0x100004973 <_Hamtion_buffer+0x653>
100004948: 8a 8d 23 ff ff ff           	movb	-221(%rbp), %cl
10000494e: 48 8b 85 18 ff ff ff        	movq	-232(%rbp), %rax
100004955: 48 83 e0 07                 	andq	$7, %rax
100004959: 48 83 c0 03                 	addq	$3, %rax
10000495d: 38 c8                       	cmpb	%cl, %al
10000495f: 0f 8c 0e 00 00 00           	jl	0x100004973 <_Hamtion_buffer+0x653>
100004965: 48 8b bd 18 ff ff ff        	movq	-232(%rbp), %rdi
10000496c: e8 43 32 00 00              	callq	0x100007bb4 <_realloc+0x100007bb4>
100004971: 0f 0b                       	ud2
100004973: 48 8b 85 18 ff ff ff        	movq	-232(%rbp), %rax
10000497a: 8b 8d 14 ff ff ff           	movl	-236(%rbp), %ecx
100004980: 89 08                       	movl	%ecx, (%rax)
100004982: 48 81 c4 f0 00 00 00        	addq	$240, %rsp
100004989: 5d                          	popq	%rbp
10000498a: c3                          	retq
10000498b: 0f 1f 44 00 00              	nopl	(%rax,%rax)

0000000100004990 <_coupled_states>:
100004990: 55                          	pushq	%rbp
100004991: 48 89 e5                    	movq	%rsp, %rbp
100004994: 53                          	pushq	%rbx
100004995: 48 83 e4 e0                 	andq	$-32, %rsp
100004999: 48 81 ec 20 04 00 00        	subq	$1056, %rsp             ## imm = 0x420
1000049a0: 48 89 e3                    	movq	%rsp, %rbx
1000049a3: 48 8b 05 06 37 00 00        	movq	14086(%rip), %rax       ## 0x1000080b0 <_realloc+0x1000080b0>
1000049aa: 48 8b 00                    	movq	(%rax), %rax
1000049ad: 48 89 83 00 04 00 00        	movq	%rax, 1024(%rbx)
1000049b4: 48 c7 83 e0 03 00 00 00 00 00 00    	movq	$0, 992(%rbx)
1000049bf: 48 89 bb d8 03 00 00        	movq	%rdi, 984(%rbx)
1000049c6: f2 0f 11 83 d0 03 00 00     	movsd	%xmm0, 976(%rbx)
1000049ce: 89 b3 cc 03 00 00           	movl	%esi, 972(%rbx)
1000049d4: 48 89 93 c0 03 00 00        	movq	%rdx, 960(%rbx)
1000049db: 48 89 8b b8 03 00 00        	movq	%rcx, 952(%rbx)
1000049e2: 48 8d 05 37 7a 00 00        	leaq	31287(%rip), %rax       ## 0x10000c420 <_h>
1000049e9: 48 c1 e8 03                 	shrq	$3, %rax
1000049ed: 48 b9 00 00 00 00 00 10 00 00       	movabsq	$17592186044416, %rcx ## imm = 0x100000000000
1000049f7: 48 09 c8                    	orq	%rcx, %rax
1000049fa: 80 38 00                    	cmpb	$0, (%rax)
1000049fd: 0f 84 0e 00 00 00           	je	0x100004a11 <_coupled_states+0x81>
100004a03: 48 8d 3d 16 7a 00 00        	leaq	31254(%rip), %rdi       ## 0x10000c420 <_h>
100004a0a: e8 99 31 00 00              	callq	0x100007ba8 <_realloc+0x100007ba8>
100004a0f: 0f 0b                       	ud2
100004a11: 48 8b 05 08 7a 00 00        	movq	31240(%rip), %rax       ## 0x10000c420 <_h>
100004a18: 48 89 83 e0 02 00 00        	movq	%rax, 736(%rbx)
100004a1f: 48 c1 e8 03                 	shrq	$3, %rax
100004a23: 48 b9 00 00 00 00 00 10 00 00       	movabsq	$17592186044416, %rcx ## imm = 0x100000000000
100004a2d: 48 09 c8                    	orq	%rcx, %rax
100004a30: 8a 00                       	movb	(%rax), %al
100004a32: 88 83 ef 02 00 00           	movb	%al, 751(%rbx)
100004a38: 3c 00                       	cmpb	$0, %al
100004a3a: 0f 84 2b 00 00 00           	je	0x100004a6b <_coupled_states+0xdb>
100004a40: 8a 8b ef 02 00 00           	movb	751(%rbx), %cl
100004a46: 48 8b 83 e0 02 00 00        	movq	736(%rbx), %rax
100004a4d: 48 83 e0 07                 	andq	$7, %rax
100004a51: 48 83 c0 03                 	addq	$3, %rax
100004a55: 38 c8                       	cmpb	%cl, %al
100004a57: 0f 8c 0e 00 00 00           	jl	0x100004a6b <_coupled_states+0xdb>
100004a5d: 48 8b bb e0 02 00 00        	movq	736(%rbx), %rdi
100004a64: e8 39 31 00 00              	callq	0x100007ba2 <_realloc+0x100007ba2>
100004a69: 0f 0b                       	ud2
100004a6b: 48 8b 83 e0 02 00 00        	movq	736(%rbx), %rax
100004a72: 8b 00                       	movl	(%rax), %eax
100004a74: 89 83 b4 03 00 00           	movl	%eax, 948(%rbx)
100004a7a: c7 83 b0 03 00 00 ff ff ff ff       	movl	$4294967295, 944(%rbx) ## imm = 0xFFFFFFFF
100004a84: 8b 83 cc 03 00 00           	movl	972(%rbx), %eax
100004a8a: 89 83 ac 03 00 00           	movl	%eax, 940(%rbx)
100004a90: 8b 83 ac 03 00 00           	movl	940(%rbx), %eax
100004a96: 89 c1                       	movl	%eax, %ecx
100004a98: 48 89 8b d8 02 00 00        	movq	%rcx, 728(%rbx)
100004a9f: 48 89 e0                    	movq	%rsp, %rax
100004aa2: 48 89 83 a0 03 00 00        	movq	%rax, 928(%rbx)
100004aa9: 48 89 ce                    	movq	%rcx, %rsi
100004aac: 48 c1 e6 03                 	shlq	$3, %rsi
100004ab0: 89 f0                       	movl	%esi, %eax
100004ab2: 83 e0 18                    	andl	$24, %eax
100004ab5: ba 20 00 00 00              	movl	$32, %edx
100004aba: 48 29 c2                    	subq	%rax, %rdx
100004abd: 31 c0                       	xorl	%eax, %eax
100004abf: 48 89 d7                    	movq	%rdx, %rdi
100004ac2: 48 83 ef 20                 	subq	$32, %rdi
100004ac6: 48 0f 45 c2                 	cmovneq	%rdx, %rax
100004aca: 48 8d 44 c8 4f              	leaq	79(%rax,%rcx,8), %rax
100004acf: 48 83 e0 f0                 	andq	$-16, %rax
100004ad3: 48 89 e7                    	movq	%rsp, %rdi
100004ad6: 48 29 c7                    	subq	%rax, %rdi
100004ad9: 48 83 e7 e0                 	andq	$-32, %rdi
100004add: 48 89 bb d0 02 00 00        	movq	%rdi, 720(%rbx)
100004ae4: 48 89 fc                    	movq	%rdi, %rsp
100004ae7: 48 83 c7 20                 	addq	$32, %rdi
100004aeb: 48 89 bb c8 02 00 00        	movq	%rdi, 712(%rbx)
100004af2: e8 7b 30 00 00              	callq	0x100007b72 <_realloc+0x100007b72>
100004af7: 48 8b 8b d0 02 00 00        	movq	720(%rbx), %rcx
100004afe: 48 8b 83 d8 02 00 00        	movq	728(%rbx), %rax
100004b05: 48 89 8b e0 03 00 00        	movq	%rcx, 992(%rbx)
100004b0c: 48 89 83 98 03 00 00        	movq	%rax, 920(%rbx)
100004b13: c7 83 94 03 00 00 00 00 00 00       	movl	$0, 916(%rbx)
100004b1d: 8b 83 94 03 00 00           	movl	916(%rbx), %eax
100004b23: 3b 83 ac 03 00 00           	cmpl	940(%rbx), %eax
100004b29: 0f 8c 05 00 00 00           	jl	0x100004b34 <_coupled_states+0x1a4>
100004b2f: e9 1b 01 00 00              	jmp	0x100004c4f <_coupled_states+0x2bf>
100004b34: 48 8b 83 c8 02 00 00        	movq	712(%rbx), %rax
100004b3b: 48 63 8b 94 03 00 00        	movslq	916(%rbx), %rcx
100004b42: 48 c1 e1 03                 	shlq	$3, %rcx
100004b46: 48 01 c8                    	addq	%rcx, %rax
100004b49: 48 89 83 c0 02 00 00        	movq	%rax, 704(%rbx)
100004b50: 48 c1 e8 03                 	shrq	$3, %rax
100004b54: 48 b9 00 00 00 00 00 10 00 00       	movabsq	$17592186044416, %rcx ## imm = 0x100000000000
100004b5e: 48 09 c8                    	orq	%rcx, %rax
100004b61: 80 38 00                    	cmpb	$0, (%rax)
100004b64: 0f 84 0e 00 00 00           	je	0x100004b78 <_coupled_states+0x1e8>
100004b6a: 48 8b bb c0 02 00 00        	movq	704(%rbx), %rdi
100004b71: e8 44 30 00 00              	callq	0x100007bba <_realloc+0x100007bba>
100004b76: 0f 0b                       	ud2
100004b78: 48 8b 83 c0 02 00 00        	movq	704(%rbx), %rax
100004b7f: 48 c7 00 01 00 00 00        	movq	$1, (%rax)
100004b86: 48 8b 83 d8 03 00 00        	movq	984(%rbx), %rax
100004b8d: 48 63 8b 94 03 00 00        	movslq	916(%rbx), %rcx
100004b94: 48 c1 e1 03                 	shlq	$3, %rcx
100004b98: 48 01 c8                    	addq	%rcx, %rax
100004b9b: 48 89 83 b8 02 00 00        	movq	%rax, 696(%rbx)
100004ba2: 48 c1 e8 03                 	shrq	$3, %rax
100004ba6: 48 b9 00 00 00 00 00 10 00 00       	movabsq	$17592186044416, %rcx ## imm = 0x100000000000
100004bb0: 48 09 c8                    	orq	%rcx, %rax
100004bb3: 80 38 00                    	cmpb	$0, (%rax)
100004bb6: 0f 84 0e 00 00 00           	je	0x100004bca <_coupled_states+0x23a>
100004bbc: 48 8b bb b8 02 00 00        	movq	696(%rbx), %rdi
100004bc3: e8 e0 2f 00 00              	callq	0x100007ba8 <_realloc+0x100007ba8>
100004bc8: 0f 0b                       	ud2
100004bca: 48 8b 83 b8 02 00 00        	movq	696(%rbx), %rax
100004bd1: 48 8b 00                    	movq	(%rax), %rax
100004bd4: 48 63 8b b0 03 00 00        	movslq	944(%rbx), %rcx
100004bdb: 48 39 c8                    	cmpq	%rcx, %rax
100004bde: 0f 85 52 00 00 00           	jne	0x100004c36 <_coupled_states+0x2a6>
100004be4: 48 8b 83 c8 02 00 00        	movq	712(%rbx), %rax
100004beb: 48 63 8b 94 03 00 00        	movslq	916(%rbx), %rcx
100004bf2: 48 c1 e1 03                 	shlq	$3, %rcx
100004bf6: 48 01 c8                    	addq	%rcx, %rax
100004bf9: 48 89 83 b0 02 00 00        	movq	%rax, 688(%rbx)
100004c00: 48 c1 e8 03                 	shrq	$3, %rax
100004c04: 48 b9 00 00 00 00 00 10 00 00       	movabsq	$17592186044416, %rcx ## imm = 0x100000000000
100004c0e: 48 09 c8                    	orq	%rcx, %rax
100004c11: 80 38 00                    	cmpb	$0, (%rax)
100004c14: 0f 84 0e 00 00 00           	je	0x100004c28 <_coupled_states+0x298>
100004c1a: 48 8b bb b0 02 00 00        	movq	688(%rbx), %rdi
100004c21: e8 94 2f 00 00              	callq	0x100007bba <_realloc+0x100007bba>
100004c26: 0f 0b                       	ud2
100004c28: 48 8b 83 b0 02 00 00        	movq	688(%rbx), %rax
100004c2f: 48 c7 00 00 00 00 00        	movq	$0, (%rax)
100004c36: e9 00 00 00 00              	jmp	0x100004c3b <_coupled_states+0x2ab>
100004c3b: 8b 83 94 03 00 00           	movl	916(%rbx), %eax
100004c41: 83 c0 01                    	addl	$1, %eax
100004c44: 89 83 94 03 00 00           	movl	%eax, 916(%rbx)
100004c4a: e9 ce fe ff ff              	jmp	0x100004b1d <_coupled_states+0x18d>
100004c4f: 8b 83 b4 03 00 00           	movl	948(%rbx), %eax
100004c55: 89 83 ac 02 00 00           	movl	%eax, 684(%rbx)
100004c5b: 48 8d 05 be 77 00 00        	leaq	30654(%rip), %rax       ## 0x10000c420 <_h>
100004c62: 48 c1 e8 03                 	shrq	$3, %rax
100004c66: 48 b9 00 00 00 00 00 10 00 00       	movabsq	$17592186044416, %rcx ## imm = 0x100000000000
100004c70: 48 09 c8                    	orq	%rcx, %rax
100004c73: 80 38 00                    	cmpb	$0, (%rax)
100004c76: 0f 84 0e 00 00 00           	je	0x100004c8a <_coupled_states+0x2fa>
100004c7c: 48 8d 3d 9d 77 00 00        	leaq	30621(%rip), %rdi       ## 0x10000c420 <_h>
100004c83: e8 20 2f 00 00              	callq	0x100007ba8 <_realloc+0x100007ba8>
100004c88: 0f 0b                       	ud2
100004c8a: 48 8b 05 8f 77 00 00        	movq	30607(%rip), %rax       ## 0x10000c420 <_h>
100004c91: 48 83 c0 04                 	addq	$4, %rax
100004c95: 48 89 83 a0 02 00 00        	movq	%rax, 672(%rbx)
100004c9c: 48 c1 e8 03                 	shrq	$3, %rax
100004ca0: 48 b9 00 00 00 00 00 10 00 00       	movabsq	$17592186044416, %rcx ## imm = 0x100000000000
100004caa: 48 09 c8                    	orq	%rcx, %rax
100004cad: 8a 00                       	movb	(%rax), %al
100004caf: 88 83 ab 02 00 00           	movb	%al, 683(%rbx)
100004cb5: 3c 00                       	cmpb	$0, %al
100004cb7: 0f 84 2b 00 00 00           	je	0x100004ce8 <_coupled_states+0x358>
100004cbd: 8a 8b ab 02 00 00           	movb	683(%rbx), %cl
100004cc3: 48 8b 83 a0 02 00 00        	movq	672(%rbx), %rax
100004cca: 48 83 e0 07                 	andq	$7, %rax
100004cce: 48 83 c0 03                 	addq	$3, %rax
100004cd2: 38 c8                       	cmpb	%cl, %al
100004cd4: 0f 8c 0e 00 00 00           	jl	0x100004ce8 <_coupled_states+0x358>
100004cda: 48 8b bb a0 02 00 00        	movq	672(%rbx), %rdi
100004ce1: e8 bc 2e 00 00              	callq	0x100007ba2 <_realloc+0x100007ba2>
100004ce6: 0f 0b                       	ud2
100004ce8: 48 8b 8b a0 02 00 00        	movq	672(%rbx), %rcx
100004cef: 8b 83 ac 02 00 00           	movl	684(%rbx), %eax
100004cf5: 0f af 01                    	imull	(%rcx), %eax
100004cf8: 89 83 90 03 00 00           	movl	%eax, 912(%rbx)
100004cfe: 48 8d 05 1b 77 00 00        	leaq	30491(%rip), %rax       ## 0x10000c420 <_h>
100004d05: 48 c1 e8 03                 	shrq	$3, %rax
100004d09: 48 b9 00 00 00 00 00 10 00 00       	movabsq	$17592186044416, %rcx ## imm = 0x100000000000
100004d13: 48 09 c8                    	orq	%rcx, %rax
100004d16: 80 38 00                    	cmpb	$0, (%rax)
100004d19: 0f 84 0e 00 00 00           	je	0x100004d2d <_coupled_states+0x39d>
100004d1f: 48 8d 3d fa 76 00 00        	leaq	30458(%rip), %rdi       ## 0x10000c420 <_h>
100004d26: e8 7d 2e 00 00              	callq	0x100007ba8 <_realloc+0x100007ba8>
100004d2b: 0f 0b                       	ud2
100004d2d: 48 8b 05 ec 76 00 00        	movq	30444(%rip), %rax       ## 0x10000c420 <_h>
100004d34: 48 83 c0 04                 	addq	$4, %rax
100004d38: 48 89 83 90 02 00 00        	movq	%rax, 656(%rbx)
100004d3f: 48 c1 e8 03                 	shrq	$3, %rax
100004d43: 48 b9 00 00 00 00 00 10 00 00       	movabsq	$17592186044416, %rcx ## imm = 0x100000000000
100004d4d: 48 09 c8                    	orq	%rcx, %rax
100004d50: 8a 00                       	movb	(%rax), %al
100004d52: 88 83 9f 02 00 00           	movb	%al, 671(%rbx)
100004d58: 3c 00                       	cmpb	$0, %al
100004d5a: 0f 84 2b 00 00 00           	je	0x100004d8b <_coupled_states+0x3fb>
100004d60: 8a 8b 9f 02 00 00           	movb	671(%rbx), %cl
100004d66: 48 8b 83 90 02 00 00        	movq	656(%rbx), %rax
100004d6d: 48 83 e0 07                 	andq	$7, %rax
100004d71: 48 83 c0 03                 	addq	$3, %rax
100004d75: 38 c8                       	cmpb	%cl, %al
100004d77: 0f 8c 0e 00 00 00           	jl	0x100004d8b <_coupled_states+0x3fb>
100004d7d: 48 8b bb 90 02 00 00        	movq	656(%rbx), %rdi
100004d84: e8 19 2e 00 00              	callq	0x100007ba2 <_realloc+0x100007ba2>
100004d89: 0f 0b                       	ud2
100004d8b: 48 8b 83 90 02 00 00        	movq	656(%rbx), %rax
100004d92: 8b 00                       	movl	(%rax), %eax
100004d94: 89 83 8c 03 00 00           	movl	%eax, 908(%rbx)
100004d9a: 48 63 bb 90 03 00 00        	movslq	912(%rbx), %rdi
100004da1: 48 c1 e7 03                 	shlq	$3, %rdi
100004da5: e8 6a 2e 00 00              	callq	0x100007c14 <_realloc+0x100007c14>
100004daa: 48 89 83 80 03 00 00        	movq	%rax, 896(%rbx)
100004db1: 48 63 bb 8c 03 00 00        	movslq	908(%rbx), %rdi
100004db8: 48 c1 e7 03                 	shlq	$3, %rdi
100004dbc: e8 53 2e 00 00              	callq	0x100007c14 <_realloc+0x100007c14>
100004dc1: 48 89 83 78 03 00 00        	movq	%rax, 888(%rbx)
100004dc8: c7 83 74 03 00 00 00 00 00 00       	movl	$0, 884(%rbx)
100004dd2: 8b 83 74 03 00 00           	movl	884(%rbx), %eax
100004dd8: 3b 83 90 03 00 00           	cmpl	912(%rbx), %eax
100004dde: 0f 8c 05 00 00 00           	jl	0x100004de9 <_coupled_states+0x459>
100004de4: e9 66 00 00 00              	jmp	0x100004e4f <_coupled_states+0x4bf>
100004de9: 48 8b 83 80 03 00 00        	movq	896(%rbx), %rax
100004df0: 48 63 8b 74 03 00 00        	movslq	884(%rbx), %rcx
100004df7: 48 c1 e1 03                 	shlq	$3, %rcx
100004dfb: 48 01 c8                    	addq	%rcx, %rax
100004dfe: 48 89 83 88 02 00 00        	movq	%rax, 648(%rbx)
100004e05: 48 c1 e8 03                 	shrq	$3, %rax
100004e09: 48 b9 00 00 00 00 00 10 00 00       	movabsq	$17592186044416, %rcx ## imm = 0x100000000000
100004e13: 48 09 c8                    	orq	%rcx, %rax
100004e16: 80 38 00                    	cmpb	$0, (%rax)
100004e19: 0f 84 0e 00 00 00           	je	0x100004e2d <_coupled_states+0x49d>
100004e1f: 48 8b bb 88 02 00 00        	movq	648(%rbx), %rdi
100004e26: e8 8f 2d 00 00              	callq	0x100007bba <_realloc+0x100007bba>
100004e2b: 0f 0b                       	ud2
100004e2d: 48 8b 83 88 02 00 00        	movq	648(%rbx), %rax
100004e34: 48 c7 00 01 00 00 00        	movq	$1, (%rax)
100004e3b: 8b 83 74 03 00 00           	movl	884(%rbx), %eax
100004e41: 83 c0 01                    	addl	$1, %eax
100004e44: 89 83 74 03 00 00           	movl	%eax, 884(%rbx)
100004e4a: e9 83 ff ff ff              	jmp	0x100004dd2 <_coupled_states+0x442>
100004e4f: 48 8b bb 78 03 00 00        	movq	888(%rbx), %rdi
100004e56: 48 63 93 8c 03 00 00        	movslq	908(%rbx), %rdx
100004e5d: 48 c1 e2 03                 	shlq	$3, %rdx
100004e61: 31 f6                       	xorl	%esi, %esi
100004e63: e8 28 2d 00 00              	callq	0x100007b90 <_realloc+0x100007b90>
100004e68: c7 83 70 03 00 00 00 00 00 00       	movl	$0, 880(%rbx)
100004e72: c7 83 6c 03 00 00 00 00 00 00       	movl	$0, 876(%rbx)
100004e7c: 8b 83 6c 03 00 00           	movl	876(%rbx), %eax
100004e82: 89 83 84 02 00 00           	movl	%eax, 644(%rbx)
100004e88: 48 8d 05 91 75 00 00        	leaq	30097(%rip), %rax       ## 0x10000c420 <_h>
100004e8f: 48 c1 e8 03                 	shrq	$3, %rax
100004e93: 48 b9 00 00 00 00 00 10 00 00       	movabsq	$17592186044416, %rcx ## imm = 0x100000000000
100004e9d: 48 09 c8                    	orq	%rcx, %rax
100004ea0: 80 38 00                    	cmpb	$0, (%rax)
100004ea3: 0f 84 0e 00 00 00           	je	0x100004eb7 <_coupled_states+0x527>
100004ea9: 48 8d 3d 70 75 00 00        	leaq	30064(%rip), %rdi       ## 0x10000c420 <_h>
100004eb0: e8 f3 2c 00 00              	callq	0x100007ba8 <_realloc+0x100007ba8>
100004eb5: 0f 0b                       	ud2
100004eb7: 48 8b 05 62 75 00 00        	movq	30050(%rip), %rax       ## 0x10000c420 <_h>
100004ebe: 48 83 c0 1c                 	addq	$28, %rax
100004ec2: 48 89 83 78 02 00 00        	movq	%rax, 632(%rbx)
100004ec9: 48 c1 e8 03                 	shrq	$3, %rax
100004ecd: 48 b9 00 00 00 00 00 10 00 00       	movabsq	$17592186044416, %rcx ## imm = 0x100000000000
100004ed7: 48 09 c8                    	orq	%rcx, %rax
100004eda: 8a 00                       	movb	(%rax), %al
100004edc: 88 83 83 02 00 00           	movb	%al, 643(%rbx)
100004ee2: 3c 00                       	cmpb	$0, %al
100004ee4: 0f 84 2b 00 00 00           	je	0x100004f15 <_coupled_states+0x585>
100004eea: 8a 8b 83 02 00 00           	movb	643(%rbx), %cl
100004ef0: 48 8b 83 78 02 00 00        	movq	632(%rbx), %rax
100004ef7: 48 83 e0 07                 	andq	$7, %rax
100004efb: 48 83 c0 03                 	addq	$3, %rax
100004eff: 38 c8                       	cmpb	%cl, %al
100004f01: 0f 8c 0e 00 00 00           	jl	0x100004f15 <_coupled_states+0x585>
100004f07: 48 8b bb 78 02 00 00        	movq	632(%rbx), %rdi
100004f0e: e8 8f 2c 00 00              	callq	0x100007ba2 <_realloc+0x100007ba2>
100004f13: 0f 0b                       	ud2
100004f15: 8b 83 84 02 00 00           	movl	644(%rbx), %eax
100004f1b: 48 8b 8b 78 02 00 00        	movq	632(%rbx), %rcx
100004f22: 3b 01                       	cmpl	(%rcx), %eax
100004f24: 0f 8c 0f 00 00 00           	jl	0x100004f39 <_coupled_states+0x5a9>
100004f2a: c7 83 68 03 00 00 08 00 00 00       	movl	$8, 872(%rbx)
100004f34: e9 41 13 00 00              	jmp	0x10000627a <_coupled_states+0x18ea>
100004f39: 0f 57 c0                    	xorps	%xmm0, %xmm0
100004f3c: f2 0f 11 83 60 03 00 00     	movsd	%xmm0, 864(%rbx)
100004f44: 48 8d 05 d5 74 00 00        	leaq	29909(%rip), %rax       ## 0x10000c420 <_h>
100004f4b: 48 c1 e8 03                 	shrq	$3, %rax
100004f4f: 48 b9 00 00 00 00 00 10 00 00       	movabsq	$17592186044416, %rcx ## imm = 0x100000000000
100004f59: 48 09 c8                    	orq	%rcx, %rax
100004f5c: 80 38 00                    	cmpb	$0, (%rax)
100004f5f: 0f 84 0e 00 00 00           	je	0x100004f73 <_coupled_states+0x5e3>
100004f65: 48 8d 3d b4 74 00 00        	leaq	29876(%rip), %rdi       ## 0x10000c420 <_h>
100004f6c: e8 37 2c 00 00              	callq	0x100007ba8 <_realloc+0x100007ba8>
100004f71: 0f 0b                       	ud2
100004f73: 48 8b 05 a6 74 00 00        	movq	29862(%rip), %rax       ## 0x10000c420 <_h>
100004f7a: 48 83 c0 08                 	addq	$8, %rax
100004f7e: 48 89 83 70 02 00 00        	movq	%rax, 624(%rbx)
100004f85: 48 c1 e8 03                 	shrq	$3, %rax
100004f89: 48 b9 00 00 00 00 00 10 00 00       	movabsq	$17592186044416, %rcx ## imm = 0x100000000000
100004f93: 48 09 c8                    	orq	%rcx, %rax
100004f96: 80 38 00                    	cmpb	$0, (%rax)
100004f99: 0f 84 0e 00 00 00           	je	0x100004fad <_coupled_states+0x61d>
100004f9f: 48 8b bb 70 02 00 00        	movq	624(%rbx), %rdi
100004fa6: e8 fd 2b 00 00              	callq	0x100007ba8 <_realloc+0x100007ba8>
100004fab: 0f 0b                       	ud2
100004fad: 48 8b 83 70 02 00 00        	movq	624(%rbx), %rax
100004fb4: 48 8b 00                    	movq	(%rax), %rax
100004fb7: 48 63 8b 6c 03 00 00        	movslq	876(%rbx), %rcx
100004fbe: 48 c1 e1 03                 	shlq	$3, %rcx
100004fc2: 48 01 c8                    	addq	%rcx, %rax
100004fc5: 48 89 83 68 02 00 00        	movq	%rax, 616(%rbx)
100004fcc: 48 c1 e8 03                 	shrq	$3, %rax
100004fd0: 48 b9 00 00 00 00 00 10 00 00       	movabsq	$17592186044416, %rcx ## imm = 0x100000000000
100004fda: 48 09 c8                    	orq	%rcx, %rax
100004fdd: 80 38 00                    	cmpb	$0, (%rax)
100004fe0: 0f 84 0e 00 00 00           	je	0x100004ff4 <_coupled_states+0x664>
100004fe6: 48 8b bb 68 02 00 00        	movq	616(%rbx), %rdi
100004fed: e8 b6 2b 00 00              	callq	0x100007ba8 <_realloc+0x100007ba8>
100004ff2: 0f 0b                       	ud2
100004ff4: 48 8b 83 68 02 00 00        	movq	616(%rbx), %rax
100004ffb: 48 8b 00                    	movq	(%rax), %rax
100004ffe: 89 83 5c 03 00 00           	movl	%eax, 860(%rbx)
100005004: 48 8d 05 15 74 00 00        	leaq	29717(%rip), %rax       ## 0x10000c420 <_h>
10000500b: 48 c1 e8 03                 	shrq	$3, %rax
10000500f: 48 b9 00 00 00 00 00 10 00 00       	movabsq	$17592186044416, %rcx ## imm = 0x100000000000
100005019: 48 09 c8                    	orq	%rcx, %rax
10000501c: 80 38 00                    	cmpb	$0, (%rax)
10000501f: 0f 84 0e 00 00 00           	je	0x100005033 <_coupled_states+0x6a3>
100005025: 48 8d 3d f4 73 00 00        	leaq	29684(%rip), %rdi       ## 0x10000c420 <_h>
10000502c: e8 77 2b 00 00              	callq	0x100007ba8 <_realloc+0x100007ba8>
100005031: 0f 0b                       	ud2
100005033: 48 8b 05 e6 73 00 00        	movq	29670(%rip), %rax       ## 0x10000c420 <_h>
10000503a: 48 83 c0 08                 	addq	$8, %rax
10000503e: 48 89 83 60 02 00 00        	movq	%rax, 608(%rbx)
100005045: 48 c1 e8 03                 	shrq	$3, %rax
100005049: 48 b9 00 00 00 00 00 10 00 00       	movabsq	$17592186044416, %rcx ## imm = 0x100000000000
100005053: 48 09 c8                    	orq	%rcx, %rax
100005056: 80 38 00                    	cmpb	$0, (%rax)
100005059: 0f 84 0e 00 00 00           	je	0x10000506d <_coupled_states+0x6dd>
10000505f: 48 8b bb 60 02 00 00        	movq	608(%rbx), %rdi
100005066: e8 3d 2b 00 00              	callq	0x100007ba8 <_realloc+0x100007ba8>
10000506b: 0f 0b                       	ud2
10000506d: 48 8b 83 60 02 00 00        	movq	608(%rbx), %rax
100005074: 48 8b 00                    	movq	(%rax), %rax
100005077: 8b 8b 6c 03 00 00           	movl	876(%rbx), %ecx
10000507d: 83 c1 01                    	addl	$1, %ecx
100005080: 48 63 c9                    	movslq	%ecx, %rcx
100005083: 48 c1 e1 03                 	shlq	$3, %rcx
100005087: 48 01 c8                    	addq	%rcx, %rax
10000508a: 48 89 83 58 02 00 00        	movq	%rax, 600(%rbx)
100005091: 48 c1 e8 03                 	shrq	$3, %rax
100005095: 48 b9 00 00 00 00 00 10 00 00       	movabsq	$17592186044416, %rcx ## imm = 0x100000000000
10000509f: 48 09 c8                    	orq	%rcx, %rax
1000050a2: 80 38 00                    	cmpb	$0, (%rax)
1000050a5: 0f 84 0e 00 00 00           	je	0x1000050b9 <_coupled_states+0x729>
1000050ab: 48 8b bb 58 02 00 00        	movq	600(%rbx), %rdi
1000050b2: e8 f1 2a 00 00              	callq	0x100007ba8 <_realloc+0x100007ba8>
1000050b7: 0f 0b                       	ud2
1000050b9: 48 8b 83 58 02 00 00        	movq	600(%rbx), %rax
1000050c0: 48 8b 00                    	movq	(%rax), %rax
1000050c3: 89 83 58 03 00 00           	movl	%eax, 856(%rbx)
1000050c9: 8b 83 5c 03 00 00           	movl	860(%rbx), %eax
1000050cf: 89 83 54 03 00 00           	movl	%eax, 852(%rbx)
1000050d5: 8b 83 54 03 00 00           	movl	852(%rbx), %eax
1000050db: 3b 83 58 03 00 00           	cmpl	856(%rbx), %eax
1000050e1: 0f 8c 0f 00 00 00           	jl	0x1000050f6 <_coupled_states+0x766>
1000050e7: c7 83 68 03 00 00 0b 00 00 00       	movl	$11, 872(%rbx)
1000050f1: e9 9e 08 00 00              	jmp	0x100005994 <_coupled_states+0x1004>
1000050f6: 48 8d 05 23 73 00 00        	leaq	29475(%rip), %rax       ## 0x10000c420 <_h>
1000050fd: 48 c1 e8 03                 	shrq	$3, %rax
100005101: 48 b9 00 00 00 00 00 10 00 00       	movabsq	$17592186044416, %rcx ## imm = 0x100000000000
10000510b: 48 09 c8                    	orq	%rcx, %rax
10000510e: 80 38 00                    	cmpb	$0, (%rax)
100005111: 0f 84 0e 00 00 00           	je	0x100005125 <_coupled_states+0x795>
100005117: 48 8d 3d 02 73 00 00        	leaq	29442(%rip), %rdi       ## 0x10000c420 <_h>
10000511e: e8 85 2a 00 00              	callq	0x100007ba8 <_realloc+0x100007ba8>
100005123: 0f 0b                       	ud2
100005125: 48 8b 05 f4 72 00 00        	movq	29428(%rip), %rax       ## 0x10000c420 <_h>
10000512c: 48 83 c0 28                 	addq	$40, %rax
100005130: 48 89 83 48 02 00 00        	movq	%rax, 584(%rbx)
100005137: 48 c1 e8 03                 	shrq	$3, %rax
10000513b: 48 b9 00 00 00 00 00 10 00 00       	movabsq	$17592186044416, %rcx ## imm = 0x100000000000
100005145: 48 09 c8                    	orq	%rcx, %rax
100005148: 8a 00                       	movb	(%rax), %al
10000514a: 88 83 57 02 00 00           	movb	%al, 599(%rbx)
100005150: 3c 00                       	cmpb	$0, %al
100005152: 0f 84 2b 00 00 00           	je	0x100005183 <_coupled_states+0x7f3>
100005158: 8a 8b 57 02 00 00           	movb	599(%rbx), %cl
10000515e: 48 8b 83 48 02 00 00        	movq	584(%rbx), %rax
100005165: 48 83 e0 07                 	andq	$7, %rax
100005169: 48 83 c0 03                 	addq	$3, %rax
10000516d: 38 c8                       	cmpb	%cl, %al
10000516f: 0f 8c 0e 00 00 00           	jl	0x100005183 <_coupled_states+0x7f3>
100005175: 48 8b bb 48 02 00 00        	movq	584(%rbx), %rdi
10000517c: e8 21 2a 00 00              	callq	0x100007ba2 <_realloc+0x100007ba2>
100005181: 0f 0b                       	ud2
100005183: 48 8b 83 48 02 00 00        	movq	584(%rbx), %rax
10000518a: 8b 00                       	movl	(%rax), %eax
10000518c: 89 c1                       	movl	%eax, %ecx
10000518e: 48 89 8b 40 02 00 00        	movq	%rcx, 576(%rbx)
100005195: 48 89 e0                    	movq	%rsp, %rax
100005198: 48 89 83 48 03 00 00        	movq	%rax, 840(%rbx)
10000519f: 48 89 ce                    	movq	%rcx, %rsi
1000051a2: 89 c8                       	movl	%ecx, %eax
1000051a4: 83 e0 1f                    	andl	$31, %eax
1000051a7: ba 20 00 00 00              	movl	$32, %edx
1000051ac: 48 29 c2                    	subq	%rax, %rdx
1000051af: 31 c0                       	xorl	%eax, %eax
1000051b1: 48 89 d7                    	movq	%rdx, %rdi
1000051b4: 48 83 ef 20                 	subq	$32, %rdi
1000051b8: 48 0f 45 c2                 	cmovneq	%rdx, %rax
1000051bc: 48 8d 44 08 4f              	leaq	79(%rax,%rcx), %rax
1000051c1: 48 83 e0 f0                 	andq	$-16, %rax
1000051c5: 48 89 e7                    	movq	%rsp, %rdi
1000051c8: 48 29 c7                    	subq	%rax, %rdi
1000051cb: 48 83 e7 e0                 	andq	$-32, %rdi
1000051cf: 48 89 bb 38 02 00 00        	movq	%rdi, 568(%rbx)
1000051d6: 48 89 fc                    	movq	%rdi, %rsp
1000051d9: 48 83 c7 20                 	addq	$32, %rdi
1000051dd: 48 89 bb 30 02 00 00        	movq	%rdi, 560(%rbx)
1000051e4: e8 89 29 00 00              	callq	0x100007b72 <_realloc+0x100007b72>
1000051e9: 48 8b 8b 38 02 00 00        	movq	568(%rbx), %rcx
1000051f0: 48 8b 83 40 02 00 00        	movq	576(%rbx), %rax
1000051f7: 48 89 8b e0 03 00 00        	movq	%rcx, 992(%rbx)
1000051fe: 48 89 83 40 03 00 00        	movq	%rax, 832(%rbx)
100005205: c7 83 3c 03 00 00 00 00 00 00       	movl	$0, 828(%rbx)
10000520f: 8b 83 3c 03 00 00           	movl	828(%rbx), %eax
100005215: 89 83 2c 02 00 00           	movl	%eax, 556(%rbx)
10000521b: 48 8d 05 fe 71 00 00        	leaq	29182(%rip), %rax       ## 0x10000c420 <_h>
100005222: 48 c1 e8 03                 	shrq	$3, %rax
100005226: 48 b9 00 00 00 00 00 10 00 00       	movabsq	$17592186044416, %rcx ## imm = 0x100000000000
100005230: 48 09 c8                    	orq	%rcx, %rax
100005233: 80 38 00                    	cmpb	$0, (%rax)
100005236: 0f 84 0e 00 00 00           	je	0x10000524a <_coupled_states+0x8ba>
10000523c: 48 8d 3d dd 71 00 00        	leaq	29149(%rip), %rdi       ## 0x10000c420 <_h>
100005243: e8 60 29 00 00              	callq	0x100007ba8 <_realloc+0x100007ba8>
100005248: 0f 0b                       	ud2
10000524a: 48 8b 05 cf 71 00 00        	movq	29135(%rip), %rax       ## 0x10000c420 <_h>
100005251: 48 83 c0 28                 	addq	$40, %rax
100005255: 48 89 83 20 02 00 00        	movq	%rax, 544(%rbx)
10000525c: 48 c1 e8 03                 	shrq	$3, %rax
100005260: 48 b9 00 00 00 00 00 10 00 00       	movabsq	$17592186044416, %rcx ## imm = 0x100000000000
10000526a: 48 09 c8                    	orq	%rcx, %rax
10000526d: 8a 00                       	movb	(%rax), %al
10000526f: 88 83 2b 02 00 00           	movb	%al, 555(%rbx)
100005275: 3c 00                       	cmpb	$0, %al
100005277: 0f 84 2b 00 00 00           	je	0x1000052a8 <_coupled_states+0x918>
10000527d: 8a 8b 2b 02 00 00           	movb	555(%rbx), %cl
100005283: 48 8b 83 20 02 00 00        	movq	544(%rbx), %rax
10000528a: 48 83 e0 07                 	andq	$7, %rax
10000528e: 48 83 c0 03                 	addq	$3, %rax
100005292: 38 c8                       	cmpb	%cl, %al
100005294: 0f 8c 0e 00 00 00           	jl	0x1000052a8 <_coupled_states+0x918>
10000529a: 48 8b bb 20 02 00 00        	movq	544(%rbx), %rdi
1000052a1: e8 fc 28 00 00              	callq	0x100007ba2 <_realloc+0x100007ba2>
1000052a6: 0f 0b                       	ud2
1000052a8: 8b 83 2c 02 00 00           	movl	556(%rbx), %eax
1000052ae: 48 8b 8b 20 02 00 00        	movq	544(%rbx), %rcx
1000052b5: 3b 01                       	cmpl	(%rcx), %eax
1000052b7: 0f 8c 0f 00 00 00           	jl	0x1000052cc <_coupled_states+0x93c>
1000052bd: c7 83 68 03 00 00 0e 00 00 00       	movl	$14, 872(%rbx)
1000052c7: e9 e8 01 00 00              	jmp	0x1000054b4 <_coupled_states+0xb24>
1000052cc: 48 8d 05 4d 71 00 00        	leaq	29005(%rip), %rax       ## 0x10000c420 <_h>
1000052d3: 48 c1 e8 03                 	shrq	$3, %rax
1000052d7: 48 b9 00 00 00 00 00 10 00 00       	movabsq	$17592186044416, %rcx ## imm = 0x100000000000
1000052e1: 48 09 c8                    	orq	%rcx, %rax
1000052e4: 80 38 00                    	cmpb	$0, (%rax)
1000052e7: 0f 84 0e 00 00 00           	je	0x1000052fb <_coupled_states+0x96b>
1000052ed: 48 8d 3d 2c 71 00 00        	leaq	28972(%rip), %rdi       ## 0x10000c420 <_h>
1000052f4: e8 af 28 00 00              	callq	0x100007ba8 <_realloc+0x100007ba8>
1000052f9: 0f 0b                       	ud2
1000052fb: 48 8b 05 1e 71 00 00        	movq	28958(%rip), %rax       ## 0x10000c420 <_h>
100005302: 48 83 c0 20                 	addq	$32, %rax
100005306: 48 89 83 18 02 00 00        	movq	%rax, 536(%rbx)
10000530d: 48 c1 e8 03                 	shrq	$3, %rax
100005311: 48 b9 00 00 00 00 00 10 00 00       	movabsq	$17592186044416, %rcx ## imm = 0x100000000000
10000531b: 48 09 c8                    	orq	%rcx, %rax
10000531e: 80 38 00                    	cmpb	$0, (%rax)
100005321: 0f 84 0e 00 00 00           	je	0x100005335 <_coupled_states+0x9a5>
100005327: 48 8b bb 18 02 00 00        	movq	536(%rbx), %rdi
10000532e: e8 75 28 00 00              	callq	0x100007ba8 <_realloc+0x100007ba8>
100005333: 0f 0b                       	ud2
100005335: 48 8b 83 18 02 00 00        	movq	536(%rbx), %rax
10000533c: 48 8b 00                    	movq	(%rax), %rax
10000533f: 48 89 83 f8 01 00 00        	movq	%rax, 504(%rbx)
100005346: 8b 83 54 03 00 00           	movl	852(%rbx), %eax
10000534c: 89 83 04 02 00 00           	movl	%eax, 516(%rbx)
100005352: 48 8b 05 c7 70 00 00        	movq	28871(%rip), %rax       ## 0x10000c420 <_h>
100005359: 48 83 c0 28                 	addq	$40, %rax
10000535d: 48 89 83 08 02 00 00        	movq	%rax, 520(%rbx)
100005364: 48 c1 e8 03                 	shrq	$3, %rax
100005368: 48 b9 00 00 00 00 00 10 00 00       	movabsq	$17592186044416, %rcx ## imm = 0x100000000000
100005372: 48 09 c8                    	orq	%rcx, %rax
100005375: 8a 00                       	movb	(%rax), %al
100005377: 88 83 17 02 00 00           	movb	%al, 535(%rbx)
10000537d: 3c 00                       	cmpb	$0, %al
10000537f: 0f 84 2b 00 00 00           	je	0x1000053b0 <_coupled_states+0xa20>
100005385: 8a 8b 17 02 00 00           	movb	535(%rbx), %cl
10000538b: 48 8b 83 08 02 00 00        	movq	520(%rbx), %rax
100005392: 48 83 e0 07                 	andq	$7, %rax
100005396: 48 83 c0 03                 	addq	$3, %rax
10000539a: 38 c8                       	cmpb	%cl, %al
10000539c: 0f 8c 0e 00 00 00           	jl	0x1000053b0 <_coupled_states+0xa20>
1000053a2: 48 8b bb 08 02 00 00        	movq	520(%rbx), %rdi
1000053a9: e8 f4 27 00 00              	callq	0x100007ba2 <_realloc+0x100007ba2>
1000053ae: 0f 0b                       	ud2
1000053b0: 48 8b 83 f8 01 00 00        	movq	504(%rbx), %rax
1000053b7: 48 8b 93 08 02 00 00        	movq	520(%rbx), %rdx
1000053be: 8b 8b 04 02 00 00           	movl	516(%rbx), %ecx
1000053c4: 0f af 0a                    	imull	(%rdx), %ecx
1000053c7: 03 8b 3c 03 00 00           	addl	828(%rbx), %ecx
1000053cd: 48 63 c9                    	movslq	%ecx, %rcx
1000053d0: 48 01 c8                    	addq	%rcx, %rax
1000053d3: 48 89 83 e8 01 00 00        	movq	%rax, 488(%rbx)
1000053da: 48 c1 e8 03                 	shrq	$3, %rax
1000053de: 48 b9 00 00 00 00 00 10 00 00       	movabsq	$17592186044416, %rcx ## imm = 0x100000000000
1000053e8: 48 09 c8                    	orq	%rcx, %rax
1000053eb: 8a 00                       	movb	(%rax), %al
1000053ed: 88 83 f7 01 00 00           	movb	%al, 503(%rbx)
1000053f3: 3c 00                       	cmpb	$0, %al
1000053f5: 0f 84 27 00 00 00           	je	0x100005422 <_coupled_states+0xa92>
1000053fb: 8a 8b f7 01 00 00           	movb	503(%rbx), %cl
100005401: 48 8b 83 e8 01 00 00        	movq	488(%rbx), %rax
100005408: 48 83 e0 07                 	andq	$7, %rax
10000540c: 38 c8                       	cmpb	%cl, %al
10000540e: 0f 8c 0e 00 00 00           	jl	0x100005422 <_coupled_states+0xa92>
100005414: 48 8b bb e8 01 00 00        	movq	488(%rbx), %rdi
10000541b: e8 7c 27 00 00              	callq	0x100007b9c <_realloc+0x100007b9c>
100005420: 0f 0b                       	ud2
100005422: 48 8b 83 30 02 00 00        	movq	560(%rbx), %rax
100005429: 48 8b 8b e8 01 00 00        	movq	488(%rbx), %rcx
100005430: 8a 09                       	movb	(%rcx), %cl
100005432: 88 8b d7 01 00 00           	movb	%cl, 471(%rbx)
100005438: 48 63 8b 3c 03 00 00        	movslq	828(%rbx), %rcx
10000543f: 48 01 c8                    	addq	%rcx, %rax
100005442: 48 89 83 d8 01 00 00        	movq	%rax, 472(%rbx)
100005449: 48 c1 e8 03                 	shrq	$3, %rax
10000544d: 48 b9 00 00 00 00 00 10 00 00       	movabsq	$17592186044416, %rcx ## imm = 0x100000000000
100005457: 48 09 c8                    	orq	%rcx, %rax
10000545a: 8a 00                       	movb	(%rax), %al
10000545c: 88 83 e7 01 00 00           	movb	%al, 487(%rbx)
100005462: 3c 00                       	cmpb	$0, %al
100005464: 0f 84 27 00 00 00           	je	0x100005491 <_coupled_states+0xb01>
10000546a: 8a 8b e7 01 00 00           	movb	487(%rbx), %cl
100005470: 48 8b 83 d8 01 00 00        	movq	472(%rbx), %rax
100005477: 48 83 e0 07                 	andq	$7, %rax
10000547b: 38 c8                       	cmpb	%cl, %al
10000547d: 0f 8c 0e 00 00 00           	jl	0x100005491 <_coupled_states+0xb01>
100005483: 48 8b bb d8 01 00 00        	movq	472(%rbx), %rdi
10000548a: e8 1f 27 00 00              	callq	0x100007bae <_realloc+0x100007bae>
10000548f: 0f 0b                       	ud2
100005491: 48 8b 83 d8 01 00 00        	movq	472(%rbx), %rax
100005498: 8a 8b d7 01 00 00           	movb	471(%rbx), %cl
10000549e: 88 08                       	movb	%cl, (%rax)
1000054a0: 8b 83 3c 03 00 00           	movl	828(%rbx), %eax
1000054a6: 83 c0 01                    	addl	$1, %eax
1000054a9: 89 83 3c 03 00 00           	movl	%eax, 828(%rbx)
1000054af: e9 5b fd ff ff              	jmp	0x10000520f <_coupled_states+0x87f>
1000054b4: 48 8d 05 65 6f 00 00        	leaq	28517(%rip), %rax       ## 0x10000c420 <_h>
1000054bb: 48 c1 e8 03                 	shrq	$3, %rax
1000054bf: 48 b9 00 00 00 00 00 10 00 00       	movabsq	$17592186044416, %rcx ## imm = 0x100000000000
1000054c9: 48 09 c8                    	orq	%rcx, %rax
1000054cc: 80 38 00                    	cmpb	$0, (%rax)
1000054cf: 0f 84 0e 00 00 00           	je	0x1000054e3 <_coupled_states+0xb53>
1000054d5: 48 8d 3d 44 6f 00 00        	leaq	28484(%rip), %rdi       ## 0x10000c420 <_h>
1000054dc: e8 c7 26 00 00              	callq	0x100007ba8 <_realloc+0x100007ba8>
1000054e1: 0f 0b                       	ud2
1000054e3: 48 8b 05 36 6f 00 00        	movq	28470(%rip), %rax       ## 0x10000c420 <_h>
1000054ea: 48 83 c0 28                 	addq	$40, %rax
1000054ee: 48 89 83 c8 01 00 00        	movq	%rax, 456(%rbx)
1000054f5: 48 c1 e8 03                 	shrq	$3, %rax
1000054f9: 48 b9 00 00 00 00 00 10 00 00       	movabsq	$17592186044416, %rcx ## imm = 0x100000000000
100005503: 48 09 c8                    	orq	%rcx, %rax
100005506: 8a 00                       	movb	(%rax), %al
100005508: 88 83 d6 01 00 00           	movb	%al, 470(%rbx)
10000550e: 3c 00                       	cmpb	$0, %al
100005510: 0f 84 2b 00 00 00           	je	0x100005541 <_coupled_states+0xbb1>
100005516: 8a 8b d6 01 00 00           	movb	470(%rbx), %cl
10000551c: 48 8b 83 c8 01 00 00        	movq	456(%rbx), %rax
100005523: 48 83 e0 07                 	andq	$7, %rax
100005527: 48 83 c0 03                 	addq	$3, %rax
10000552b: 38 c8                       	cmpb	%cl, %al
10000552d: 0f 8c 0e 00 00 00           	jl	0x100005541 <_coupled_states+0xbb1>
100005533: 48 8b bb c8 01 00 00        	movq	456(%rbx), %rdi
10000553a: e8 63 26 00 00              	callq	0x100007ba2 <_realloc+0x100007ba2>
10000553f: 0f 0b                       	ud2
100005541: 48 8b 83 c8 01 00 00        	movq	456(%rbx), %rax
100005548: 8b 00                       	movl	(%rax), %eax
10000554a: 89 c1                       	movl	%eax, %ecx
10000554c: 48 89 8b c0 01 00 00        	movq	%rcx, 448(%rbx)
100005553: 48 89 ce                    	movq	%rcx, %rsi
100005556: 89 c8                       	movl	%ecx, %eax
100005558: 83 e0 1f                    	andl	$31, %eax
10000555b: ba 20 00 00 00              	movl	$32, %edx
100005560: 48 29 c2                    	subq	%rax, %rdx
100005563: 31 c0                       	xorl	%eax, %eax
100005565: 48 89 d7                    	movq	%rdx, %rdi
100005568: 48 83 ef 20                 	subq	$32, %rdi
10000556c: 48 0f 45 c2                 	cmovneq	%rdx, %rax
100005570: 48 8d 44 08 4f              	leaq	79(%rax,%rcx), %rax
100005575: 48 83 e0 f0                 	andq	$-16, %rax
100005579: 48 89 e7                    	movq	%rsp, %rdi
10000557c: 48 29 c7                    	subq	%rax, %rdi
10000557f: 48 83 e7 e0                 	andq	$-32, %rdi
100005583: 48 89 bb b8 01 00 00        	movq	%rdi, 440(%rbx)
10000558a: 48 89 fc                    	movq	%rdi, %rsp
10000558d: 48 83 c7 20                 	addq	$32, %rdi
100005591: 48 89 bb b0 01 00 00        	movq	%rdi, 432(%rbx)
100005598: e8 d5 25 00 00              	callq	0x100007b72 <_realloc+0x100007b72>
10000559d: 48 8b 8b b8 01 00 00        	movq	440(%rbx), %rcx
1000055a4: 48 8b 83 c0 01 00 00        	movq	448(%rbx), %rax
1000055ab: 48 89 8b e0 03 00 00        	movq	%rcx, 992(%rbx)
1000055b2: 48 89 83 30 03 00 00        	movq	%rax, 816(%rbx)
1000055b9: c7 83 2c 03 00 00 00 00 00 00       	movl	$0, 812(%rbx)
1000055c3: c7 83 28 03 00 00 00 00 00 00       	movl	$0, 808(%rbx)
1000055cd: 8b 83 28 03 00 00           	movl	808(%rbx), %eax
1000055d3: 89 83 ac 01 00 00           	movl	%eax, 428(%rbx)
1000055d9: 48 8d 05 40 6e 00 00        	leaq	28224(%rip), %rax       ## 0x10000c420 <_h>
1000055e0: 48 c1 e8 03                 	shrq	$3, %rax
1000055e4: 48 b9 00 00 00 00 00 10 00 00       	movabsq	$17592186044416, %rcx ## imm = 0x100000000000
1000055ee: 48 09 c8                    	orq	%rcx, %rax
1000055f1: 80 38 00                    	cmpb	$0, (%rax)
1000055f4: 0f 84 0e 00 00 00           	je	0x100005608 <_coupled_states+0xc78>
1000055fa: 48 8d 3d 1f 6e 00 00        	leaq	28191(%rip), %rdi       ## 0x10000c420 <_h>
100005601: e8 a2 25 00 00              	callq	0x100007ba8 <_realloc+0x100007ba8>
100005606: 0f 0b                       	ud2
100005608: 48 8b 05 11 6e 00 00        	movq	28177(%rip), %rax       ## 0x10000c420 <_h>
10000560f: 48 83 c0 28                 	addq	$40, %rax
100005613: 48 89 83 a0 01 00 00        	movq	%rax, 416(%rbx)
10000561a: 48 c1 e8 03                 	shrq	$3, %rax
10000561e: 48 b9 00 00 00 00 00 10 00 00       	movabsq	$17592186044416, %rcx ## imm = 0x100000000000
100005628: 48 09 c8                    	orq	%rcx, %rax
10000562b: 8a 00                       	movb	(%rax), %al
10000562d: 88 83 ab 01 00 00           	movb	%al, 427(%rbx)
100005633: 3c 00                       	cmpb	$0, %al
100005635: 0f 84 2b 00 00 00           	je	0x100005666 <_coupled_states+0xcd6>
10000563b: 8a 8b ab 01 00 00           	movb	427(%rbx), %cl
100005641: 48 8b 83 a0 01 00 00        	movq	416(%rbx), %rax
100005648: 48 83 e0 07                 	andq	$7, %rax
10000564c: 48 83 c0 03                 	addq	$3, %rax
100005650: 38 c8                       	cmpb	%cl, %al
100005652: 0f 8c 0e 00 00 00           	jl	0x100005666 <_coupled_states+0xcd6>
100005658: 48 8b bb a0 01 00 00        	movq	416(%rbx), %rdi
10000565f: e8 3e 25 00 00              	callq	0x100007ba2 <_realloc+0x100007ba2>
100005664: 0f 0b                       	ud2
100005666: 8b 83 ac 01 00 00           	movl	428(%rbx), %eax
10000566c: 48 8b 8b a0 01 00 00        	movq	416(%rbx), %rcx
100005673: 3b 01                       	cmpl	(%rcx), %eax
100005675: 0f 8c 0f 00 00 00           	jl	0x10000568a <_coupled_states+0xcfa>
10000567b: c7 83 68 03 00 00 11 00 00 00       	movl	$17, 872(%rbx)
100005685: e9 d7 01 00 00              	jmp	0x100005861 <_coupled_states+0xed1>
10000568a: 48 8b 83 30 02 00 00        	movq	560(%rbx), %rax
100005691: 48 63 8b 28 03 00 00        	movslq	808(%rbx), %rcx
100005698: 48 01 c8                    	addq	%rcx, %rax
10000569b: 48 89 83 90 01 00 00        	movq	%rax, 400(%rbx)
1000056a2: 48 c1 e8 03                 	shrq	$3, %rax
1000056a6: 48 b9 00 00 00 00 00 10 00 00       	movabsq	$17592186044416, %rcx ## imm = 0x100000000000
1000056b0: 48 09 c8                    	orq	%rcx, %rax
1000056b3: 8a 00                       	movb	(%rax), %al
1000056b5: 88 83 9f 01 00 00           	movb	%al, 415(%rbx)
1000056bb: 3c 00                       	cmpb	$0, %al
1000056bd: 0f 84 27 00 00 00           	je	0x1000056ea <_coupled_states+0xd5a>
1000056c3: 8a 8b 9f 01 00 00           	movb	415(%rbx), %cl
1000056c9: 48 8b 83 90 01 00 00        	movq	400(%rbx), %rax
1000056d0: 48 83 e0 07                 	andq	$7, %rax
1000056d4: 38 c8                       	cmpb	%cl, %al
1000056d6: 0f 8c 0e 00 00 00           	jl	0x1000056ea <_coupled_states+0xd5a>
1000056dc: 48 8b bb 90 01 00 00        	movq	400(%rbx), %rdi
1000056e3: e8 b4 24 00 00              	callq	0x100007b9c <_realloc+0x100007b9c>
1000056e8: 0f 0b                       	ud2
1000056ea: 48 8b 83 c8 02 00 00        	movq	712(%rbx), %rax
1000056f1: 48 8b 8b 90 01 00 00        	movq	400(%rbx), %rcx
1000056f8: 48 0f be 09                 	movsbq	(%rcx), %rcx
1000056fc: 48 89 8b 80 01 00 00        	movq	%rcx, 384(%rbx)
100005703: 48 63 8b 28 03 00 00        	movslq	808(%rbx), %rcx
10000570a: 48 c1 e1 03                 	shlq	$3, %rcx
10000570e: 48 01 c8                    	addq	%rcx, %rax
100005711: 48 89 83 88 01 00 00        	movq	%rax, 392(%rbx)
100005718: 48 c1 e8 03                 	shrq	$3, %rax
10000571c: 48 b9 00 00 00 00 00 10 00 00       	movabsq	$17592186044416, %rcx ## imm = 0x100000000000
100005726: 48 09 c8                    	orq	%rcx, %rax
100005729: 80 38 00                    	cmpb	$0, (%rax)
10000572c: 0f 84 0e 00 00 00           	je	0x100005740 <_coupled_states+0xdb0>
100005732: 48 8b bb 88 01 00 00        	movq	392(%rbx), %rdi
100005739: e8 6a 24 00 00              	callq	0x100007ba8 <_realloc+0x100007ba8>
10000573e: 0f 0b                       	ud2
100005740: 48 8b 83 b0 01 00 00        	movq	432(%rbx), %rax
100005747: 48 8b 93 88 01 00 00        	movq	392(%rbx), %rdx
10000574e: 48 8b 8b 80 01 00 00        	movq	384(%rbx), %rcx
100005755: 48 23 0a                    	andq	(%rdx), %rcx
100005758: 88 8b 6f 01 00 00           	movb	%cl, 367(%rbx)
10000575e: 48 63 8b 28 03 00 00        	movslq	808(%rbx), %rcx
100005765: 48 01 c8                    	addq	%rcx, %rax
100005768: 48 89 83 70 01 00 00        	movq	%rax, 368(%rbx)
10000576f: 48 c1 e8 03                 	shrq	$3, %rax
100005773: 48 b9 00 00 00 00 00 10 00 00       	movabsq	$17592186044416, %rcx ## imm = 0x100000000000
10000577d: 48 09 c8                    	orq	%rcx, %rax
100005780: 8a 00                       	movb	(%rax), %al
100005782: 88 83 7f 01 00 00           	movb	%al, 383(%rbx)
100005788: 3c 00                       	cmpb	$0, %al
10000578a: 0f 84 27 00 00 00           	je	0x1000057b7 <_coupled_states+0xe27>
100005790: 8a 8b 7f 01 00 00           	movb	383(%rbx), %cl
100005796: 48 8b 83 70 01 00 00        	movq	368(%rbx), %rax
10000579d: 48 83 e0 07                 	andq	$7, %rax
1000057a1: 38 c8                       	cmpb	%cl, %al
1000057a3: 0f 8c 0e 00 00 00           	jl	0x1000057b7 <_coupled_states+0xe27>
1000057a9: 48 8b bb 70 01 00 00        	movq	368(%rbx), %rdi
1000057b0: e8 f9 23 00 00              	callq	0x100007bae <_realloc+0x100007bae>
1000057b5: 0f 0b                       	ud2
1000057b7: 48 8b 83 b0 01 00 00        	movq	432(%rbx), %rax
1000057be: 48 8b 8b 70 01 00 00        	movq	368(%rbx), %rcx
1000057c5: 8a 93 6f 01 00 00           	movb	367(%rbx), %dl
1000057cb: 88 11                       	movb	%dl, (%rcx)
1000057cd: 48 63 8b 28 03 00 00        	movslq	808(%rbx), %rcx
1000057d4: 48 01 c8                    	addq	%rcx, %rax
1000057d7: 48 89 83 60 01 00 00        	movq	%rax, 352(%rbx)
1000057de: 48 c1 e8 03                 	shrq	$3, %rax
1000057e2: 48 b9 00 00 00 00 00 10 00 00       	movabsq	$17592186044416, %rcx ## imm = 0x100000000000
1000057ec: 48 09 c8                    	orq	%rcx, %rax
1000057ef: 8a 00                       	movb	(%rax), %al
1000057f1: 88 83 6e 01 00 00           	movb	%al, 366(%rbx)
1000057f7: 3c 00                       	cmpb	$0, %al
1000057f9: 0f 84 27 00 00 00           	je	0x100005826 <_coupled_states+0xe96>
1000057ff: 8a 8b 6e 01 00 00           	movb	366(%rbx), %cl
100005805: 48 8b 83 60 01 00 00        	movq	352(%rbx), %rax
10000580c: 48 83 e0 07                 	andq	$7, %rax
100005810: 38 c8                       	cmpb	%cl, %al
100005812: 0f 8c 0e 00 00 00           	jl	0x100005826 <_coupled_states+0xe96>
100005818: 48 8b bb 60 01 00 00        	movq	352(%rbx), %rdi
10000581f: e8 78 23 00 00              	callq	0x100007b9c <_realloc+0x100007b9c>
100005824: 0f 0b                       	ud2
100005826: 48 8b 83 60 01 00 00        	movq	352(%rbx), %rax
10000582d: 0f be 00                    	movsbl	(%rax), %eax
100005830: 83 f8 00                    	cmpl	$0, %eax
100005833: 0f 85 0f 00 00 00           	jne	0x100005848 <_coupled_states+0xeb8>
100005839: 8b 83 2c 03 00 00           	movl	812(%rbx), %eax
10000583f: 83 c0 01                    	addl	$1, %eax
100005842: 89 83 2c 03 00 00           	movl	%eax, 812(%rbx)
100005848: e9 00 00 00 00              	jmp	0x10000584d <_coupled_states+0xebd>
10000584d: 8b 83 28 03 00 00           	movl	808(%rbx), %eax
100005853: 83 c0 01                    	addl	$1, %eax
100005856: 89 83 28 03 00 00           	movl	%eax, 808(%rbx)
10000585c: e9 6c fd ff ff              	jmp	0x1000055cd <_coupled_states+0xc3d>
100005861: c7 83 24 03 00 00 ff ff ff ff       	movl	$4294967295, 804(%rbx) ## imm = 0xFFFFFFFF
10000586b: 8b bb 24 03 00 00           	movl	804(%rbx), %edi
100005871: 8b b3 2c 03 00 00           	movl	812(%rbx), %esi
100005877: e8 94 0c 00 00              	callq	0x100006510 <__ZL3powIiiENSt3__19_MetaBaseIXaasr3std13is_arithmeticIT_EE5valuesr3std13is_arithmeticIT0_EE5valueEE13_EnableIfImplINS0_9__promoteIS2_S3_vEEE4typeES2_S3_>
10000587c: f2 0f 11 83 58 01 00 00     	movsd	%xmm0, 344(%rbx)
100005884: 48 8d 05 95 6b 00 00        	leaq	27541(%rip), %rax       ## 0x10000c420 <_h>
10000588b: 48 c1 e8 03                 	shrq	$3, %rax
10000588f: 48 b9 00 00 00 00 00 10 00 00       	movabsq	$17592186044416, %rcx ## imm = 0x100000000000
100005899: 48 09 c8                    	orq	%rcx, %rax
10000589c: 80 38 00                    	cmpb	$0, (%rax)
10000589f: 0f 84 0e 00 00 00           	je	0x1000058b3 <_coupled_states+0xf23>
1000058a5: 48 8d 3d 74 6b 00 00        	leaq	27508(%rip), %rdi       ## 0x10000c420 <_h>
1000058ac: e8 f7 22 00 00              	callq	0x100007ba8 <_realloc+0x100007ba8>
1000058b1: 0f 0b                       	ud2
1000058b3: 48 8b 05 66 6b 00 00        	movq	27494(%rip), %rax       ## 0x10000c420 <_h>
1000058ba: 48 83 c0 30                 	addq	$48, %rax
1000058be: 48 89 83 50 01 00 00        	movq	%rax, 336(%rbx)
1000058c5: 48 c1 e8 03                 	shrq	$3, %rax
1000058c9: 48 b9 00 00 00 00 00 10 00 00       	movabsq	$17592186044416, %rcx ## imm = 0x100000000000
1000058d3: 48 09 c8                    	orq	%rcx, %rax
1000058d6: 80 38 00                    	cmpb	$0, (%rax)
1000058d9: 0f 84 0e 00 00 00           	je	0x1000058ed <_coupled_states+0xf5d>
1000058df: 48 8b bb 50 01 00 00        	movq	336(%rbx), %rdi
1000058e6: e8 bd 22 00 00              	callq	0x100007ba8 <_realloc+0x100007ba8>
1000058eb: 0f 0b                       	ud2
1000058ed: 48 8b 83 50 01 00 00        	movq	336(%rbx), %rax
1000058f4: 48 8b 00                    	movq	(%rax), %rax
1000058f7: 48 63 8b 54 03 00 00        	movslq	852(%rbx), %rcx
1000058fe: 48 c1 e1 03                 	shlq	$3, %rcx
100005902: 48 01 c8                    	addq	%rcx, %rax
100005905: 48 89 83 48 01 00 00        	movq	%rax, 328(%rbx)
10000590c: 48 c1 e8 03                 	shrq	$3, %rax
100005910: 48 b9 00 00 00 00 00 10 00 00       	movabsq	$17592186044416, %rcx ## imm = 0x100000000000
10000591a: 48 09 c8                    	orq	%rcx, %rax
10000591d: 80 38 00                    	cmpb	$0, (%rax)
100005920: 0f 84 0e 00 00 00           	je	0x100005934 <_coupled_states+0xfa4>
100005926: 48 8b bb 48 01 00 00        	movq	328(%rbx), %rdi
10000592d: e8 76 22 00 00              	callq	0x100007ba8 <_realloc+0x100007ba8>
100005932: 0f 0b                       	ud2
100005934: 48 8b 83 48 01 00 00        	movq	328(%rbx), %rax
10000593b: f2 0f 10 83 58 01 00 00     	movsd	344(%rbx), %xmm0        ## xmm0 = mem[0],zero
100005943: f2 0f 59 00                 	mulsd	(%rax), %xmm0
100005947: f2 0f 58 83 60 03 00 00     	addsd	864(%rbx), %xmm0
10000594f: f2 0f 11 83 60 03 00 00     	movsd	%xmm0, 864(%rbx)
100005957: 48 8b b3 48 03 00 00        	movq	840(%rbx), %rsi
10000595e: 48 89 b3 40 01 00 00        	movq	%rsi, 320(%rbx)
100005965: 31 c0                       	xorl	%eax, %eax
100005967: 48 01 c6                    	addq	%rax, %rsi
10000596a: 48 8b bb e0 03 00 00        	movq	992(%rbx), %rdi
100005971: e8 02 22 00 00              	callq	0x100007b78 <_realloc+0x100007b78>
100005976: 48 8b 83 40 01 00 00        	movq	320(%rbx), %rax
10000597d: 48 89 c4                    	movq	%rax, %rsp
100005980: 8b 83 54 03 00 00           	movl	852(%rbx), %eax
100005986: 83 c0 01                    	addl	$1, %eax
100005989: 89 83 54 03 00 00           	movl	%eax, 852(%rbx)
10000598f: e9 41 f7 ff ff              	jmp	0x1000050d5 <_coupled_states+0x745>
100005994: f2 0f 10 83 60 03 00 00     	movsd	864(%rbx), %xmm0        ## xmm0 = mem[0],zero
10000599c: e8 9f 0b 00 00              	callq	0x100006540 <__ZL3absd>
1000059a1: 0f 28 c8                    	movaps	%xmm0, %xmm1
1000059a4: f2 0f 10 83 d0 03 00 00     	movsd	976(%rbx), %xmm0        ## xmm0 = mem[0],zero
1000059ac: 66 0f 2e c1                 	ucomisd	%xmm1, %xmm0
1000059b0: 0f 86 0f 00 00 00           	jbe	0x1000059c5 <_coupled_states+0x1035>
1000059b6: c7 83 68 03 00 00 0a 00 00 00       	movl	$10, 872(%rbx)
1000059c0: e9 84 08 00 00              	jmp	0x100006249 <_coupled_states+0x18b9>
1000059c5: 8b 83 70 03 00 00           	movl	880(%rbx), %eax
1000059cb: 83 c0 01                    	addl	$1, %eax
1000059ce: 89 83 70 03 00 00           	movl	%eax, 880(%rbx)
1000059d4: f2 0f 10 83 60 03 00 00     	movsd	864(%rbx), %xmm0        ## xmm0 = mem[0],zero
1000059dc: f2 0f 11 83 30 01 00 00     	movsd	%xmm0, 304(%rbx)
1000059e4: 48 8b 83 78 03 00 00        	movq	888(%rbx), %rax
1000059eb: 8b 8b 70 03 00 00           	movl	880(%rbx), %ecx
1000059f1: 83 e9 01                    	subl	$1, %ecx
1000059f4: 48 63 c9                    	movslq	%ecx, %rcx
1000059f7: 48 c1 e1 03                 	shlq	$3, %rcx
1000059fb: 48 01 c8                    	addq	%rcx, %rax
1000059fe: 48 89 83 38 01 00 00        	movq	%rax, 312(%rbx)
100005a05: 48 c1 e8 03                 	shrq	$3, %rax
100005a09: 48 b9 00 00 00 00 00 10 00 00       	movabsq	$17592186044416, %rcx ## imm = 0x100000000000
100005a13: 48 09 c8                    	orq	%rcx, %rax
100005a16: 80 38 00                    	cmpb	$0, (%rax)
100005a19: 0f 84 0e 00 00 00           	je	0x100005a2d <_coupled_states+0x109d>
100005a1f: 48 8b bb 38 01 00 00        	movq	312(%rbx), %rdi
100005a26: e8 8f 21 00 00              	callq	0x100007bba <_realloc+0x100007bba>
100005a2b: 0f 0b                       	ud2
100005a2d: 48 8b 83 38 01 00 00        	movq	312(%rbx), %rax
100005a34: f2 0f 10 83 30 01 00 00     	movsd	304(%rbx), %xmm0        ## xmm0 = mem[0],zero
100005a3c: f2 0f 11 00                 	movsd	%xmm0, (%rax)
100005a40: 48 8d 05 d9 69 00 00        	leaq	27097(%rip), %rax       ## 0x10000c420 <_h>
100005a47: 48 c1 e8 03                 	shrq	$3, %rax
100005a4b: 48 b9 00 00 00 00 00 10 00 00       	movabsq	$17592186044416, %rcx ## imm = 0x100000000000
100005a55: 48 09 c8                    	orq	%rcx, %rax
100005a58: 80 38 00                    	cmpb	$0, (%rax)
100005a5b: 0f 84 0e 00 00 00           	je	0x100005a6f <_coupled_states+0x10df>
100005a61: 48 8d 3d b8 69 00 00        	leaq	27064(%rip), %rdi       ## 0x10000c420 <_h>
100005a68: e8 3b 21 00 00              	callq	0x100007ba8 <_realloc+0x100007ba8>
100005a6d: 0f 0b                       	ud2
100005a6f: 48 8b 05 aa 69 00 00        	movq	27050(%rip), %rax       ## 0x10000c420 <_h>
100005a76: 48 83 c0 18                 	addq	$24, %rax
100005a7a: 48 89 83 20 01 00 00        	movq	%rax, 288(%rbx)
100005a81: 48 c1 e8 03                 	shrq	$3, %rax
100005a85: 48 b9 00 00 00 00 00 10 00 00       	movabsq	$17592186044416, %rcx ## imm = 0x100000000000
100005a8f: 48 09 c8                    	orq	%rcx, %rax
100005a92: 8a 00                       	movb	(%rax), %al
100005a94: 88 83 2f 01 00 00           	movb	%al, 303(%rbx)
100005a9a: 3c 00                       	cmpb	$0, %al
100005a9c: 0f 84 2b 00 00 00           	je	0x100005acd <_coupled_states+0x113d>
100005aa2: 8a 8b 2f 01 00 00           	movb	303(%rbx), %cl
100005aa8: 48 8b 83 20 01 00 00        	movq	288(%rbx), %rax
100005aaf: 48 83 e0 07                 	andq	$7, %rax
100005ab3: 48 83 c0 03                 	addq	$3, %rax
100005ab7: 38 c8                       	cmpb	%cl, %al
100005ab9: 0f 8c 0e 00 00 00           	jl	0x100005acd <_coupled_states+0x113d>
100005abf: 48 8b bb 20 01 00 00        	movq	288(%rbx), %rdi
100005ac6: e8 d7 20 00 00              	callq	0x100007ba2 <_realloc+0x100007ba2>
100005acb: 0f 0b                       	ud2
100005acd: 48 8b 83 20 01 00 00        	movq	288(%rbx), %rax
100005ad4: 8b 00                       	movl	(%rax), %eax
100005ad6: 89 c1                       	movl	%eax, %ecx
100005ad8: 48 89 8b 18 01 00 00        	movq	%rcx, 280(%rbx)
100005adf: 48 89 e0                    	movq	%rsp, %rax
100005ae2: 48 89 83 18 03 00 00        	movq	%rax, 792(%rbx)
100005ae9: 48 89 ce                    	movq	%rcx, %rsi
100005aec: 48 c1 e6 03                 	shlq	$3, %rsi
100005af0: 89 f0                       	movl	%esi, %eax
100005af2: 83 e0 18                    	andl	$24, %eax
100005af5: ba 20 00 00 00              	movl	$32, %edx
100005afa: 48 29 c2                    	subq	%rax, %rdx
100005afd: 31 c0                       	xorl	%eax, %eax
100005aff: 48 89 d7                    	movq	%rdx, %rdi
100005b02: 48 83 ef 20                 	subq	$32, %rdi
100005b06: 48 0f 45 c2                 	cmovneq	%rdx, %rax
100005b0a: 48 8d 44 c8 4f              	leaq	79(%rax,%rcx,8), %rax
100005b0f: 48 83 e0 f0                 	andq	$-16, %rax
100005b13: 48 89 e7                    	movq	%rsp, %rdi
100005b16: 48 29 c7                    	subq	%rax, %rdi
100005b19: 48 83 e7 e0                 	andq	$-32, %rdi
100005b1d: 48 89 bb 10 01 00 00        	movq	%rdi, 272(%rbx)
100005b24: 48 89 fc                    	movq	%rdi, %rsp
100005b27: 48 83 c7 20                 	addq	$32, %rdi
100005b2b: 48 89 bb 08 01 00 00        	movq	%rdi, 264(%rbx)
100005b32: e8 3b 20 00 00              	callq	0x100007b72 <_realloc+0x100007b72>
100005b37: 48 8b 8b 10 01 00 00        	movq	272(%rbx), %rcx
100005b3e: 48 8b 83 18 01 00 00        	movq	280(%rbx), %rax
100005b45: 48 89 8b e0 03 00 00        	movq	%rcx, 992(%rbx)
100005b4c: 48 89 83 10 03 00 00        	movq	%rax, 784(%rbx)
100005b53: c7 83 0c 03 00 00 00 00 00 00       	movl	$0, 780(%rbx)
100005b5d: 8b 83 0c 03 00 00           	movl	780(%rbx), %eax
100005b63: 89 83 04 01 00 00           	movl	%eax, 260(%rbx)
100005b69: 48 8d 05 b0 68 00 00        	leaq	26800(%rip), %rax       ## 0x10000c420 <_h>
100005b70: 48 c1 e8 03                 	shrq	$3, %rax
100005b74: 48 b9 00 00 00 00 00 10 00 00       	movabsq	$17592186044416, %rcx ## imm = 0x100000000000
100005b7e: 48 09 c8                    	orq	%rcx, %rax
100005b81: 80 38 00                    	cmpb	$0, (%rax)
100005b84: 0f 84 0e 00 00 00           	je	0x100005b98 <_coupled_states+0x1208>
100005b8a: 48 8d 3d 8f 68 00 00        	leaq	26767(%rip), %rdi       ## 0x10000c420 <_h>
100005b91: e8 12 20 00 00              	callq	0x100007ba8 <_realloc+0x100007ba8>
100005b96: 0f 0b                       	ud2
100005b98: 48 8b 05 81 68 00 00        	movq	26753(%rip), %rax       ## 0x10000c420 <_h>
100005b9f: 48 83 c0 18                 	addq	$24, %rax
100005ba3: 48 89 83 f8 00 00 00        	movq	%rax, 248(%rbx)
100005baa: 48 c1 e8 03                 	shrq	$3, %rax
100005bae: 48 b9 00 00 00 00 00 10 00 00       	movabsq	$17592186044416, %rcx ## imm = 0x100000000000
100005bb8: 48 09 c8                    	orq	%rcx, %rax
100005bbb: 8a 00                       	movb	(%rax), %al
100005bbd: 88 83 03 01 00 00           	movb	%al, 259(%rbx)
100005bc3: 3c 00                       	cmpb	$0, %al
100005bc5: 0f 84 2b 00 00 00           	je	0x100005bf6 <_coupled_states+0x1266>
100005bcb: 8a 8b 03 01 00 00           	movb	259(%rbx), %cl
100005bd1: 48 8b 83 f8 00 00 00        	movq	248(%rbx), %rax
100005bd8: 48 83 e0 07                 	andq	$7, %rax
100005bdc: 48 83 c0 03                 	addq	$3, %rax
100005be0: 38 c8                       	cmpb	%cl, %al
100005be2: 0f 8c 0e 00 00 00           	jl	0x100005bf6 <_coupled_states+0x1266>
100005be8: 48 8b bb f8 00 00 00        	movq	248(%rbx), %rdi
100005bef: e8 ae 1f 00 00              	callq	0x100007ba2 <_realloc+0x100007ba2>
100005bf4: 0f 0b                       	ud2
100005bf6: 8b 83 04 01 00 00           	movl	260(%rbx), %eax
100005bfc: 48 8b 8b f8 00 00 00        	movq	248(%rbx), %rcx
100005c03: 3b 01                       	cmpl	(%rcx), %eax
100005c05: 0f 8c 0f 00 00 00           	jl	0x100005c1a <_coupled_states+0x128a>
100005c0b: c7 83 68 03 00 00 14 00 00 00       	movl	$20, 872(%rbx)
100005c15: e9 d1 01 00 00              	jmp	0x100005deb <_coupled_states+0x145b>
100005c1a: 48 8d 05 ff 67 00 00        	leaq	26623(%rip), %rax       ## 0x10000c420 <_h>
100005c21: 48 c1 e8 03                 	shrq	$3, %rax
100005c25: 48 b9 00 00 00 00 00 10 00 00       	movabsq	$17592186044416, %rcx ## imm = 0x100000000000
100005c2f: 48 09 c8                    	orq	%rcx, %rax
100005c32: 80 38 00                    	cmpb	$0, (%rax)
100005c35: 0f 84 0e 00 00 00           	je	0x100005c49 <_coupled_states+0x12b9>
100005c3b: 48 8d 3d de 67 00 00        	leaq	26590(%rip), %rdi       ## 0x10000c420 <_h>
100005c42: e8 61 1f 00 00              	callq	0x100007ba8 <_realloc+0x100007ba8>
100005c47: 0f 0b                       	ud2
100005c49: 48 8b 05 d0 67 00 00        	movq	26576(%rip), %rax       ## 0x10000c420 <_h>
100005c50: 48 83 c0 10                 	addq	$16, %rax
100005c54: 48 89 83 f0 00 00 00        	movq	%rax, 240(%rbx)
100005c5b: 48 c1 e8 03                 	shrq	$3, %rax
100005c5f: 48 b9 00 00 00 00 00 10 00 00       	movabsq	$17592186044416, %rcx ## imm = 0x100000000000
100005c69: 48 09 c8                    	orq	%rcx, %rax
100005c6c: 80 38 00                    	cmpb	$0, (%rax)
100005c6f: 0f 84 0e 00 00 00           	je	0x100005c83 <_coupled_states+0x12f3>
100005c75: 48 8b bb f0 00 00 00        	movq	240(%rbx), %rdi
100005c7c: e8 27 1f 00 00              	callq	0x100007ba8 <_realloc+0x100007ba8>
100005c81: 0f 0b                       	ud2
100005c83: 48 8b 83 f0 00 00 00        	movq	240(%rbx), %rax
100005c8a: 48 8b 00                    	movq	(%rax), %rax
100005c8d: 48 89 83 d0 00 00 00        	movq	%rax, 208(%rbx)
100005c94: 8b 83 6c 03 00 00           	movl	876(%rbx), %eax
100005c9a: 89 83 dc 00 00 00           	movl	%eax, 220(%rbx)
100005ca0: 48 8b 05 79 67 00 00        	movq	26489(%rip), %rax       ## 0x10000c420 <_h>
100005ca7: 48 83 c0 18                 	addq	$24, %rax
100005cab: 48 89 83 e0 00 00 00        	movq	%rax, 224(%rbx)
100005cb2: 48 c1 e8 03                 	shrq	$3, %rax
100005cb6: 48 b9 00 00 00 00 00 10 00 00       	movabsq	$17592186044416, %rcx ## imm = 0x100000000000
100005cc0: 48 09 c8                    	orq	%rcx, %rax
100005cc3: 8a 00                       	movb	(%rax), %al
100005cc5: 88 83 ef 00 00 00           	movb	%al, 239(%rbx)
100005ccb: 3c 00                       	cmpb	$0, %al
100005ccd: 0f 84 2b 00 00 00           	je	0x100005cfe <_coupled_states+0x136e>
100005cd3: 8a 8b ef 00 00 00           	movb	239(%rbx), %cl
100005cd9: 48 8b 83 e0 00 00 00        	movq	224(%rbx), %rax
100005ce0: 48 83 e0 07                 	andq	$7, %rax
100005ce4: 48 83 c0 03                 	addq	$3, %rax
100005ce8: 38 c8                       	cmpb	%cl, %al
100005cea: 0f 8c 0e 00 00 00           	jl	0x100005cfe <_coupled_states+0x136e>
100005cf0: 48 8b bb e0 00 00 00        	movq	224(%rbx), %rdi
100005cf7: e8 a6 1e 00 00              	callq	0x100007ba2 <_realloc+0x100007ba2>
100005cfc: 0f 0b                       	ud2
100005cfe: 48 8b 83 d0 00 00 00        	movq	208(%rbx), %rax
100005d05: 48 8b 93 e0 00 00 00        	movq	224(%rbx), %rdx
100005d0c: 8b 8b dc 00 00 00           	movl	220(%rbx), %ecx
100005d12: 0f af 0a                    	imull	(%rdx), %ecx
100005d15: 03 8b 0c 03 00 00           	addl	780(%rbx), %ecx
100005d1b: 48 63 c9                    	movslq	%ecx, %rcx
100005d1e: 48 01 c8                    	addq	%rcx, %rax
100005d21: 48 89 83 c0 00 00 00        	movq	%rax, 192(%rbx)
100005d28: 48 c1 e8 03                 	shrq	$3, %rax
100005d2c: 48 b9 00 00 00 00 00 10 00 00       	movabsq	$17592186044416, %rcx ## imm = 0x100000000000
100005d36: 48 09 c8                    	orq	%rcx, %rax
100005d39: 8a 00                       	movb	(%rax), %al
100005d3b: 88 83 cf 00 00 00           	movb	%al, 207(%rbx)
100005d41: 3c 00                       	cmpb	$0, %al
100005d43: 0f 84 27 00 00 00           	je	0x100005d70 <_coupled_states+0x13e0>
100005d49: 8a 8b cf 00 00 00           	movb	207(%rbx), %cl
100005d4f: 48 8b 83 c0 00 00 00        	movq	192(%rbx), %rax
100005d56: 48 83 e0 07                 	andq	$7, %rax
100005d5a: 38 c8                       	cmpb	%cl, %al
100005d5c: 0f 8c 0e 00 00 00           	jl	0x100005d70 <_coupled_states+0x13e0>
100005d62: 48 8b bb c0 00 00 00        	movq	192(%rbx), %rdi
100005d69: e8 2e 1e 00 00              	callq	0x100007b9c <_realloc+0x100007b9c>
100005d6e: 0f 0b                       	ud2
100005d70: 48 8b 83 08 01 00 00        	movq	264(%rbx), %rax
100005d77: 48 8b 8b c0 00 00 00        	movq	192(%rbx), %rcx
100005d7e: 48 0f be 09                 	movsbq	(%rcx), %rcx
100005d82: 48 89 8b b0 00 00 00        	movq	%rcx, 176(%rbx)
100005d89: 48 63 8b 0c 03 00 00        	movslq	780(%rbx), %rcx
100005d90: 48 c1 e1 03                 	shlq	$3, %rcx
100005d94: 48 01 c8                    	addq	%rcx, %rax
100005d97: 48 89 83 b8 00 00 00        	movq	%rax, 184(%rbx)
100005d9e: 48 c1 e8 03                 	shrq	$3, %rax
100005da2: 48 b9 00 00 00 00 00 10 00 00       	movabsq	$17592186044416, %rcx ## imm = 0x100000000000
100005dac: 48 09 c8                    	orq	%rcx, %rax
100005daf: 80 38 00                    	cmpb	$0, (%rax)
100005db2: 0f 84 0e 00 00 00           	je	0x100005dc6 <_coupled_states+0x1436>
100005db8: 48 8b bb b8 00 00 00        	movq	184(%rbx), %rdi
100005dbf: e8 f6 1d 00 00              	callq	0x100007bba <_realloc+0x100007bba>
100005dc4: 0f 0b                       	ud2
100005dc6: 48 8b 83 b8 00 00 00        	movq	184(%rbx), %rax
100005dcd: 48 8b 8b b0 00 00 00        	movq	176(%rbx), %rcx
100005dd4: 48 89 08                    	movq	%rcx, (%rax)
100005dd7: 8b 83 0c 03 00 00           	movl	780(%rbx), %eax
100005ddd: 83 c0 01                    	addl	$1, %eax
100005de0: 89 83 0c 03 00 00           	movl	%eax, 780(%rbx)
100005de6: e9 72 fd ff ff              	jmp	0x100005b5d <_coupled_states+0x11cd>
100005deb: 48 8d 05 2e 66 00 00        	leaq	26158(%rip), %rax       ## 0x10000c420 <_h>
100005df2: 48 c1 e8 03                 	shrq	$3, %rax
100005df6: 48 b9 00 00 00 00 00 10 00 00       	movabsq	$17592186044416, %rcx ## imm = 0x100000000000
100005e00: 48 09 c8                    	orq	%rcx, %rax
100005e03: 80 38 00                    	cmpb	$0, (%rax)
100005e06: 0f 84 0e 00 00 00           	je	0x100005e1a <_coupled_states+0x148a>
100005e0c: 48 8d 3d 0d 66 00 00        	leaq	26125(%rip), %rdi       ## 0x10000c420 <_h>
100005e13: e8 90 1d 00 00              	callq	0x100007ba8 <_realloc+0x100007ba8>
100005e18: 0f 0b                       	ud2
100005e1a: 48 8b 05 ff 65 00 00        	movq	26111(%rip), %rax       ## 0x10000c420 <_h>
100005e21: 48 83 c0 18                 	addq	$24, %rax
100005e25: 48 89 83 a0 00 00 00        	movq	%rax, 160(%rbx)
100005e2c: 48 c1 e8 03                 	shrq	$3, %rax
100005e30: 48 b9 00 00 00 00 00 10 00 00       	movabsq	$17592186044416, %rcx ## imm = 0x100000000000
100005e3a: 48 09 c8                    	orq	%rcx, %rax
100005e3d: 8a 00                       	movb	(%rax), %al
100005e3f: 88 83 af 00 00 00           	movb	%al, 175(%rbx)
100005e45: 3c 00                       	cmpb	$0, %al
100005e47: 0f 84 2b 00 00 00           	je	0x100005e78 <_coupled_states+0x14e8>
100005e4d: 8a 8b af 00 00 00           	movb	175(%rbx), %cl
100005e53: 48 8b 83 a0 00 00 00        	movq	160(%rbx), %rax
100005e5a: 48 83 e0 07                 	andq	$7, %rax
100005e5e: 48 83 c0 03                 	addq	$3, %rax
100005e62: 38 c8                       	cmpb	%cl, %al
100005e64: 0f 8c 0e 00 00 00           	jl	0x100005e78 <_coupled_states+0x14e8>
100005e6a: 48 8b bb a0 00 00 00        	movq	160(%rbx), %rdi
100005e71: e8 2c 1d 00 00              	callq	0x100007ba2 <_realloc+0x100007ba2>
100005e76: 0f 0b                       	ud2
100005e78: 48 8b 83 a0 00 00 00        	movq	160(%rbx), %rax
100005e7f: 8b 00                       	movl	(%rax), %eax
100005e81: 89 c1                       	movl	%eax, %ecx
100005e83: 48 89 8b 98 00 00 00        	movq	%rcx, 152(%rbx)
100005e8a: 48 89 ce                    	movq	%rcx, %rsi
100005e8d: 48 c1 e6 03                 	shlq	$3, %rsi
100005e91: 89 f0                       	movl	%esi, %eax
100005e93: 83 e0 18                    	andl	$24, %eax
100005e96: ba 20 00 00 00              	movl	$32, %edx
100005e9b: 48 29 c2                    	subq	%rax, %rdx
100005e9e: 31 c0                       	xorl	%eax, %eax
100005ea0: 48 89 d7                    	movq	%rdx, %rdi
100005ea3: 48 83 ef 20                 	subq	$32, %rdi
100005ea7: 48 0f 45 c2                 	cmovneq	%rdx, %rax
100005eab: 48 8d 44 c8 4f              	leaq	79(%rax,%rcx,8), %rax
100005eb0: 48 83 e0 f0                 	andq	$-16, %rax
100005eb4: 48 89 e7                    	movq	%rsp, %rdi
100005eb7: 48 29 c7                    	subq	%rax, %rdi
100005eba: 48 83 e7 e0                 	andq	$-32, %rdi
100005ebe: 48 89 bb 90 00 00 00        	movq	%rdi, 144(%rbx)
100005ec5: 48 89 fc                    	movq	%rdi, %rsp
100005ec8: 48 83 c7 20                 	addq	$32, %rdi
100005ecc: 48 89 bb 88 00 00 00        	movq	%rdi, 136(%rbx)
100005ed3: e8 9a 1c 00 00              	callq	0x100007b72 <_realloc+0x100007b72>
100005ed8: 48 8b 8b 90 00 00 00        	movq	144(%rbx), %rcx
100005edf: 48 8b 83 98 00 00 00        	movq	152(%rbx), %rax
100005ee6: 48 89 8b e0 03 00 00        	movq	%rcx, 992(%rbx)
100005eed: 48 89 83 00 03 00 00        	movq	%rax, 768(%rbx)
100005ef4: c7 83 fc 02 00 00 00 00 00 00       	movl	$0, 764(%rbx)
100005efe: 8b 83 fc 02 00 00           	movl	764(%rbx), %eax
100005f04: 89 83 84 00 00 00           	movl	%eax, 132(%rbx)
100005f0a: 48 8d 05 0f 65 00 00        	leaq	25871(%rip), %rax       ## 0x10000c420 <_h>
100005f11: 48 c1 e8 03                 	shrq	$3, %rax
100005f15: 48 b9 00 00 00 00 00 10 00 00       	movabsq	$17592186044416, %rcx ## imm = 0x100000000000
100005f1f: 48 09 c8                    	orq	%rcx, %rax
100005f22: 80 38 00                    	cmpb	$0, (%rax)
100005f25: 0f 84 0e 00 00 00           	je	0x100005f39 <_coupled_states+0x15a9>
100005f2b: 48 8d 3d ee 64 00 00        	leaq	25838(%rip), %rdi       ## 0x10000c420 <_h>
100005f32: e8 71 1c 00 00              	callq	0x100007ba8 <_realloc+0x100007ba8>
100005f37: 0f 0b                       	ud2
100005f39: 48 8b 05 e0 64 00 00        	movq	25824(%rip), %rax       ## 0x10000c420 <_h>
100005f40: 48 83 c0 18                 	addq	$24, %rax
100005f44: 48 89 43 78                 	movq	%rax, 120(%rbx)
100005f48: 48 c1 e8 03                 	shrq	$3, %rax
100005f4c: 48 b9 00 00 00 00 00 10 00 00       	movabsq	$17592186044416, %rcx ## imm = 0x100000000000
100005f56: 48 09 c8                    	orq	%rcx, %rax
100005f59: 8a 00                       	movb	(%rax), %al
100005f5b: 88 83 83 00 00 00           	movb	%al, 131(%rbx)
100005f61: 3c 00                       	cmpb	$0, %al
100005f63: 0f 84 25 00 00 00           	je	0x100005f8e <_coupled_states+0x15fe>
100005f69: 8a 8b 83 00 00 00           	movb	131(%rbx), %cl
100005f6f: 48 8b 43 78                 	movq	120(%rbx), %rax
100005f73: 48 83 e0 07                 	andq	$7, %rax
100005f77: 48 83 c0 03                 	addq	$3, %rax
100005f7b: 38 c8                       	cmpb	%cl, %al
100005f7d: 0f 8c 0b 00 00 00           	jl	0x100005f8e <_coupled_states+0x15fe>
100005f83: 48 8b 7b 78                 	movq	120(%rbx), %rdi
100005f87: e8 16 1c 00 00              	callq	0x100007ba2 <_realloc+0x100007ba2>
100005f8c: 0f 0b                       	ud2
100005f8e: 8b 83 84 00 00 00           	movl	132(%rbx), %eax
100005f94: 48 8b 4b 78                 	movq	120(%rbx), %rcx
100005f98: 3b 01                       	cmpl	(%rcx), %eax
100005f9a: 0f 8c 0f 00 00 00           	jl	0x100005faf <_coupled_states+0x161f>
100005fa0: c7 83 68 03 00 00 17 00 00 00       	movl	$23, 872(%rbx)
100005faa: e9 f3 00 00 00              	jmp	0x1000060a2 <_coupled_states+0x1712>
100005faf: 48 8b 83 c8 02 00 00        	movq	712(%rbx), %rax
100005fb6: 48 63 8b fc 02 00 00        	movslq	764(%rbx), %rcx
100005fbd: 48 c1 e1 03                 	shlq	$3, %rcx
100005fc1: 48 01 c8                    	addq	%rcx, %rax
100005fc4: 48 89 43 70                 	movq	%rax, 112(%rbx)
100005fc8: 48 c1 e8 03                 	shrq	$3, %rax
100005fcc: 48 b9 00 00 00 00 00 10 00 00       	movabsq	$17592186044416, %rcx ## imm = 0x100000000000
100005fd6: 48 09 c8                    	orq	%rcx, %rax
100005fd9: 80 38 00                    	cmpb	$0, (%rax)
100005fdc: 0f 84 0b 00 00 00           	je	0x100005fed <_coupled_states+0x165d>
100005fe2: 48 8b 7b 70                 	movq	112(%rbx), %rdi
100005fe6: e8 bd 1b 00 00              	callq	0x100007ba8 <_realloc+0x100007ba8>
100005feb: 0f 0b                       	ud2
100005fed: 48 8b 83 08 01 00 00        	movq	264(%rbx), %rax
100005ff4: 48 8b 4b 70                 	movq	112(%rbx), %rcx
100005ff8: 48 8b 09                    	movq	(%rcx), %rcx
100005ffb: 48 89 4b 60                 	movq	%rcx, 96(%rbx)
100005fff: 48 63 8b fc 02 00 00        	movslq	764(%rbx), %rcx
100006006: 48 c1 e1 03                 	shlq	$3, %rcx
10000600a: 48 01 c8                    	addq	%rcx, %rax
10000600d: 48 89 43 68                 	movq	%rax, 104(%rbx)
100006011: 48 c1 e8 03                 	shrq	$3, %rax
100006015: 48 b9 00 00 00 00 00 10 00 00       	movabsq	$17592186044416, %rcx ## imm = 0x100000000000
10000601f: 48 09 c8                    	orq	%rcx, %rax
100006022: 80 38 00                    	cmpb	$0, (%rax)
100006025: 0f 84 0b 00 00 00           	je	0x100006036 <_coupled_states+0x16a6>
10000602b: 48 8b 7b 68                 	movq	104(%rbx), %rdi
10000602f: e8 74 1b 00 00              	callq	0x100007ba8 <_realloc+0x100007ba8>
100006034: 0f 0b                       	ud2
100006036: 48 8b 83 88 00 00 00        	movq	136(%rbx), %rax
10000603d: 48 8b 53 68                 	movq	104(%rbx), %rdx
100006041: 48 8b 4b 60                 	movq	96(%rbx), %rcx
100006045: 48 33 0a                    	xorq	(%rdx), %rcx
100006048: 48 89 4b 50                 	movq	%rcx, 80(%rbx)
10000604c: 48 63 8b fc 02 00 00        	movslq	764(%rbx), %rcx
100006053: 48 c1 e1 03                 	shlq	$3, %rcx
100006057: 48 01 c8                    	addq	%rcx, %rax
10000605a: 48 89 43 58                 	movq	%rax, 88(%rbx)
10000605e: 48 c1 e8 03                 	shrq	$3, %rax
100006062: 48 b9 00 00 00 00 00 10 00 00       	movabsq	$17592186044416, %rcx ## imm = 0x100000000000
10000606c: 48 09 c8                    	orq	%rcx, %rax
10000606f: 80 38 00                    	cmpb	$0, (%rax)
100006072: 0f 84 0b 00 00 00           	je	0x100006083 <_coupled_states+0x16f3>
100006078: 48 8b 7b 58                 	movq	88(%rbx), %rdi
10000607c: e8 39 1b 00 00              	callq	0x100007bba <_realloc+0x100007bba>
100006081: 0f 0b                       	ud2
100006083: 48 8b 43 58                 	movq	88(%rbx), %rax
100006087: 48 8b 4b 50                 	movq	80(%rbx), %rcx
10000608b: 48 89 08                    	movq	%rcx, (%rax)
10000608e: 8b 83 fc 02 00 00           	movl	764(%rbx), %eax
100006094: 83 c0 01                    	addl	$1, %eax
100006097: 89 83 fc 02 00 00           	movl	%eax, 764(%rbx)
10000609d: e9 5c fe ff ff              	jmp	0x100005efe <_coupled_states+0x156e>
1000060a2: c7 83 f8 02 00 00 00 00 00 00       	movl	$0, 760(%rbx)
1000060ac: 8b 83 f8 02 00 00           	movl	760(%rbx), %eax
1000060b2: 89 43 4c                    	movl	%eax, 76(%rbx)
1000060b5: 48 8d 05 64 63 00 00        	leaq	25444(%rip), %rax       ## 0x10000c420 <_h>
1000060bc: 48 c1 e8 03                 	shrq	$3, %rax
1000060c0: 48 b9 00 00 00 00 00 10 00 00       	movabsq	$17592186044416, %rcx ## imm = 0x100000000000
1000060ca: 48 09 c8                    	orq	%rcx, %rax
1000060cd: 80 38 00                    	cmpb	$0, (%rax)
1000060d0: 0f 84 0e 00 00 00           	je	0x1000060e4 <_coupled_states+0x1754>
1000060d6: 48 8d 3d 43 63 00 00        	leaq	25411(%rip), %rdi       ## 0x10000c420 <_h>
1000060dd: e8 c6 1a 00 00              	callq	0x100007ba8 <_realloc+0x100007ba8>
1000060e2: 0f 0b                       	ud2
1000060e4: 48 8b 05 35 63 00 00        	movq	25397(%rip), %rax       ## 0x10000c420 <_h>
1000060eb: 48 83 c0 18                 	addq	$24, %rax
1000060ef: 48 89 43 40                 	movq	%rax, 64(%rbx)
1000060f3: 48 c1 e8 03                 	shrq	$3, %rax
1000060f7: 48 b9 00 00 00 00 00 10 00 00       	movabsq	$17592186044416, %rcx ## imm = 0x100000000000
100006101: 48 09 c8                    	orq	%rcx, %rax
100006104: 8a 00                       	movb	(%rax), %al
100006106: 88 43 4b                    	movb	%al, 75(%rbx)
100006109: 3c 00                       	cmpb	$0, %al
10000610b: 0f 84 22 00 00 00           	je	0x100006133 <_coupled_states+0x17a3>
100006111: 8a 4b 4b                    	movb	75(%rbx), %cl
100006114: 48 8b 43 40                 	movq	64(%rbx), %rax
100006118: 48 83 e0 07                 	andq	$7, %rax
10000611c: 48 83 c0 03                 	addq	$3, %rax
100006120: 38 c8                       	cmpb	%cl, %al
100006122: 0f 8c 0b 00 00 00           	jl	0x100006133 <_coupled_states+0x17a3>
100006128: 48 8b 7b 40                 	movq	64(%rbx), %rdi
10000612c: e8 71 1a 00 00              	callq	0x100007ba2 <_realloc+0x100007ba2>
100006131: 0f 0b                       	ud2
100006133: 8b 43 4c                    	movl	76(%rbx), %eax
100006136: 48 8b 4b 40                 	movq	64(%rbx), %rcx
10000613a: 3b 01                       	cmpl	(%rcx), %eax
10000613c: 0f 8c 0f 00 00 00           	jl	0x100006151 <_coupled_states+0x17c1>
100006142: c7 83 68 03 00 00 1a 00 00 00       	movl	$26, 872(%rbx)
10000614c: e9 cb 00 00 00              	jmp	0x10000621c <_coupled_states+0x188c>
100006151: 48 8b 83 88 00 00 00        	movq	136(%rbx), %rax
100006158: 48 63 8b f8 02 00 00        	movslq	760(%rbx), %rcx
10000615f: 48 c1 e1 03                 	shlq	$3, %rcx
100006163: 48 01 c8                    	addq	%rcx, %rax
100006166: 48 89 43 38                 	movq	%rax, 56(%rbx)
10000616a: 48 c1 e8 03                 	shrq	$3, %rax
10000616e: 48 b9 00 00 00 00 00 10 00 00       	movabsq	$17592186044416, %rcx ## imm = 0x100000000000
100006178: 48 09 c8                    	orq	%rcx, %rax
10000617b: 80 38 00                    	cmpb	$0, (%rax)
10000617e: 0f 84 0b 00 00 00           	je	0x10000618f <_coupled_states+0x17ff>
100006184: 48 8b 7b 38                 	movq	56(%rbx), %rdi
100006188: e8 1b 1a 00 00              	callq	0x100007ba8 <_realloc+0x100007ba8>
10000618d: 0f 0b                       	ud2
10000618f: 48 8b 43 38                 	movq	56(%rbx), %rax
100006193: 48 83 38 00                 	cmpq	$0, (%rax)
100006197: 0f 85 66 00 00 00           	jne	0x100006203 <_coupled_states+0x1873>
10000619d: 48 63 83 b0 03 00 00        	movslq	944(%rbx), %rax
1000061a4: 48 89 43 28                 	movq	%rax, 40(%rbx)
1000061a8: 48 8b 83 80 03 00 00        	movq	896(%rbx), %rax
1000061af: 8b 8b 70 03 00 00           	movl	880(%rbx), %ecx
1000061b5: 83 e9 01                    	subl	$1, %ecx
1000061b8: 0f af 8b b4 03 00 00        	imull	948(%rbx), %ecx
1000061bf: 03 8b f8 02 00 00           	addl	760(%rbx), %ecx
1000061c5: 48 63 c9                    	movslq	%ecx, %rcx
1000061c8: 48 c1 e1 03                 	shlq	$3, %rcx
1000061cc: 48 01 c8                    	addq	%rcx, %rax
1000061cf: 48 89 43 30                 	movq	%rax, 48(%rbx)
1000061d3: 48 c1 e8 03                 	shrq	$3, %rax
1000061d7: 48 b9 00 00 00 00 00 10 00 00       	movabsq	$17592186044416, %rcx ## imm = 0x100000000000
1000061e1: 48 09 c8                    	orq	%rcx, %rax
1000061e4: 80 38 00                    	cmpb	$0, (%rax)
1000061e7: 0f 84 0b 00 00 00           	je	0x1000061f8 <_coupled_states+0x1868>
1000061ed: 48 8b 7b 30                 	movq	48(%rbx), %rdi
1000061f1: e8 c4 19 00 00              	callq	0x100007bba <_realloc+0x100007bba>
1000061f6: 0f 0b                       	ud2
1000061f8: 48 8b 43 30                 	movq	48(%rbx), %rax
1000061fc: 48 8b 4b 28                 	movq	40(%rbx), %rcx
100006200: 48 89 08                    	movq	%rcx, (%rax)
100006203: e9 00 00 00 00              	jmp	0x100006208 <_coupled_states+0x1878>
100006208: 8b 83 f8 02 00 00           	movl	760(%rbx), %eax
10000620e: 83 c0 01                    	addl	$1, %eax
100006211: 89 83 f8 02 00 00           	movl	%eax, 760(%rbx)
100006217: e9 90 fe ff ff              	jmp	0x1000060ac <_coupled_states+0x171c>
10000621c: 48 8b b3 18 03 00 00        	movq	792(%rbx), %rsi
100006223: 48 89 73 20                 	movq	%rsi, 32(%rbx)
100006227: 31 c0                       	xorl	%eax, %eax
100006229: 48 01 c6                    	addq	%rax, %rsi
10000622c: 48 8b bb e0 03 00 00        	movq	992(%rbx), %rdi
100006233: e8 40 19 00 00              	callq	0x100007b78 <_realloc+0x100007b78>
100006238: 48 8b 43 20                 	movq	32(%rbx), %rax
10000623c: 48 89 c4                    	movq	%rax, %rsp
10000623f: c7 83 68 03 00 00 00 00 00 00       	movl	$0, 872(%rbx)
100006249: 8b 83 68 03 00 00           	movl	872(%rbx), %eax
10000624f: 85 c0                       	testl	%eax, %eax
100006251: 0f 84 0a 00 00 00           	je	0x100006261 <_coupled_states+0x18d1>
100006257: e9 00 00 00 00              	jmp	0x10000625c <_coupled_states+0x18cc>
10000625c: e9 05 00 00 00              	jmp	0x100006266 <_coupled_states+0x18d6>
100006261: e9 00 00 00 00              	jmp	0x100006266 <_coupled_states+0x18d6>
100006266: 8b 83 6c 03 00 00           	movl	876(%rbx), %eax
10000626c: 83 c0 01                    	addl	$1, %eax
10000626f: 89 83 6c 03 00 00           	movl	%eax, 876(%rbx)
100006275: e9 02 ec ff ff              	jmp	0x100004e7c <_coupled_states+0x4ec>
10000627a: 48 63 bb 90 03 00 00        	movslq	912(%rbx), %rdi
100006281: 48 c1 e7 03                 	shlq	$3, %rdi
100006285: e8 8a 19 00 00              	callq	0x100007c14 <_realloc+0x100007c14>
10000628a: 48 89 83 c0 03 00 00        	movq	%rax, 960(%rbx)
100006291: 48 63 bb 8c 03 00 00        	movslq	908(%rbx), %rdi
100006298: 48 c1 e7 03                 	shlq	$3, %rdi
10000629c: e8 73 19 00 00              	callq	0x100007c14 <_realloc+0x100007c14>
1000062a1: 48 89 83 b8 03 00 00        	movq	%rax, 952(%rbx)
1000062a8: 48 8b bb c0 03 00 00        	movq	960(%rbx), %rdi
1000062af: 48 63 93 90 03 00 00        	movslq	912(%rbx), %rdx
1000062b6: 48 c1 e2 02                 	shlq	$2, %rdx
1000062ba: 31 f6                       	xorl	%esi, %esi
1000062bc: e8 cf 18 00 00              	callq	0x100007b90 <_realloc+0x100007b90>
1000062c1: 48 8b bb b8 03 00 00        	movq	952(%rbx), %rdi
1000062c8: 48 63 93 8c 03 00 00        	movslq	908(%rbx), %rdx
1000062cf: 48 c1 e2 03                 	shlq	$3, %rdx
1000062d3: 31 f6                       	xorl	%esi, %esi
1000062d5: e8 b6 18 00 00              	callq	0x100007b90 <_realloc+0x100007b90>
1000062da: 48 8b bb c0 03 00 00        	movq	960(%rbx), %rdi
1000062e1: 48 8b b3 80 03 00 00        	movq	896(%rbx), %rsi
1000062e8: 48 63 93 90 03 00 00        	movslq	912(%rbx), %rdx
1000062ef: 48 c1 e2 03                 	shlq	$3, %rdx
1000062f3: e8 92 18 00 00              	callq	0x100007b8a <_realloc+0x100007b8a>
1000062f8: 48 8d 3d c1 19 00 00        	leaq	6593(%rip), %rdi        ## 0x100007cc0 <_.str>
1000062ff: b0 00                       	movb	$0, %al
100006301: e8 1a 19 00 00              	callq	0x100007c20 <_realloc+0x100007c20>
100006306: c7 83 f4 02 00 00 00 00 00 00       	movl	$0, 756(%rbx)
100006310: 8b 83 f4 02 00 00           	movl	756(%rbx), %eax
100006316: 3b 83 90 03 00 00           	cmpl	912(%rbx), %eax
10000631c: 0f 8c 0f 00 00 00           	jl	0x100006331 <_coupled_states+0x19a1>
100006322: c7 83 68 03 00 00 1d 00 00 00       	movl	$29, 872(%rbx)
10000632c: e9 67 00 00 00              	jmp	0x100006398 <_coupled_states+0x1a08>
100006331: 48 8b 83 c0 03 00 00        	movq	960(%rbx), %rax
100006338: 48 63 8b f4 02 00 00        	movslq	756(%rbx), %rcx
10000633f: 48 c1 e1 03                 	shlq	$3, %rcx
100006343: 48 01 c8                    	addq	%rcx, %rax
100006346: 48 89 43 18                 	movq	%rax, 24(%rbx)
10000634a: 48 c1 e8 03                 	shrq	$3, %rax
10000634e: 48 b9 00 00 00 00 00 10 00 00       	movabsq	$17592186044416, %rcx ## imm = 0x100000000000
100006358: 48 09 c8                    	orq	%rcx, %rax
10000635b: 80 38 00                    	cmpb	$0, (%rax)
10000635e: 0f 84 0b 00 00 00           	je	0x10000636f <_coupled_states+0x19df>
100006364: 48 8b 7b 18                 	movq	24(%rbx), %rdi
100006368: e8 3b 18 00 00              	callq	0x100007ba8 <_realloc+0x100007ba8>
10000636d: 0f 0b                       	ud2
10000636f: 48 8b 43 18                 	movq	24(%rbx), %rax
100006373: 48 8b 30                    	movq	(%rax), %rsi
100006376: 48 8d 3d 63 19 00 00        	leaq	6499(%rip), %rdi        ## 0x100007ce0 <_.str.1>
10000637d: b0 00                       	movb	$0, %al
10000637f: e8 9c 18 00 00              	callq	0x100007c20 <_realloc+0x100007c20>
100006384: 8b 83 f4 02 00 00           	movl	756(%rbx), %eax
10000638a: 83 c0 01                    	addl	$1, %eax
10000638d: 89 83 f4 02 00 00           	movl	%eax, 756(%rbx)
100006393: e9 78 ff ff ff              	jmp	0x100006310 <_coupled_states+0x1980>
100006398: 48 8d 3d 61 19 00 00        	leaq	6497(%rip), %rdi        ## 0x100007d00 <_.str.2>
10000639f: b0 00                       	movb	$0, %al
1000063a1: e8 7a 18 00 00              	callq	0x100007c20 <_realloc+0x100007c20>
1000063a6: 48 8d 3d 73 19 00 00        	leaq	6515(%rip), %rdi        ## 0x100007d20 <_.str.3>
1000063ad: b0 00                       	movb	$0, %al
1000063af: e8 6c 18 00 00              	callq	0x100007c20 <_realloc+0x100007c20>
1000063b4: 48 8b bb b8 03 00 00        	movq	952(%rbx), %rdi
1000063bb: 48 8b b3 78 03 00 00        	movq	888(%rbx), %rsi
1000063c2: 48 63 93 8c 03 00 00        	movslq	908(%rbx), %rdx
1000063c9: 48 c1 e2 03                 	shlq	$3, %rdx
1000063cd: e8 b8 17 00 00              	callq	0x100007b8a <_realloc+0x100007b8a>
1000063d2: c7 83 f0 02 00 00 00 00 00 00       	movl	$0, 752(%rbx)
1000063dc: 8b 83 f0 02 00 00           	movl	752(%rbx), %eax
1000063e2: 3b 83 8c 03 00 00           	cmpl	908(%rbx), %eax
1000063e8: 0f 8c 0f 00 00 00           	jl	0x1000063fd <_coupled_states+0x1a6d>
1000063ee: c7 83 68 03 00 00 20 00 00 00       	movl	$32, 872(%rbx)
1000063f8: e9 68 00 00 00              	jmp	0x100006465 <_coupled_states+0x1ad5>
1000063fd: 48 8b 83 b8 03 00 00        	movq	952(%rbx), %rax
100006404: 48 63 8b f0 02 00 00        	movslq	752(%rbx), %rcx
10000640b: 48 c1 e1 03                 	shlq	$3, %rcx
10000640f: 48 01 c8                    	addq	%rcx, %rax
100006412: 48 89 43 10                 	movq	%rax, 16(%rbx)
100006416: 48 c1 e8 03                 	shrq	$3, %rax
10000641a: 48 b9 00 00 00 00 00 10 00 00       	movabsq	$17592186044416, %rcx ## imm = 0x100000000000
100006424: 48 09 c8                    	orq	%rcx, %rax
100006427: 80 38 00                    	cmpb	$0, (%rax)
10000642a: 0f 84 0b 00 00 00           	je	0x10000643b <_coupled_states+0x1aab>
100006430: 48 8b 7b 10                 	movq	16(%rbx), %rdi
100006434: e8 6f 17 00 00              	callq	0x100007ba8 <_realloc+0x100007ba8>
100006439: 0f 0b                       	ud2
10000643b: 48 8b 43 10                 	movq	16(%rbx), %rax
10000643f: f2 0f 10 00                 	movsd	(%rax), %xmm0           ## xmm0 = mem[0],zero
100006443: 48 8d 3d f6 18 00 00        	leaq	6390(%rip), %rdi        ## 0x100007d40 <_.str.4>
10000644a: b0 01                       	movb	$1, %al
10000644c: e8 cf 17 00 00              	callq	0x100007c20 <_realloc+0x100007c20>
100006451: 8b 83 f0 02 00 00           	movl	752(%rbx), %eax
100006457: 83 c0 01                    	addl	$1, %eax
10000645a: 89 83 f0 02 00 00           	movl	%eax, 752(%rbx)
100006460: e9 77 ff ff ff              	jmp	0x1000063dc <_coupled_states+0x1a4c>
100006465: 48 8b 05 54 1c 00 00        	movq	7252(%rip), %rax        ## 0x1000080c0 <_realloc+0x1000080c0>
10000646c: 48 c1 e8 03                 	shrq	$3, %rax
100006470: 48 b9 00 00 00 00 00 10 00 00       	movabsq	$17592186044416, %rcx ## imm = 0x100000000000
10000647a: 48 09 c8                    	orq	%rcx, %rax
10000647d: 80 38 00                    	cmpb	$0, (%rax)
100006480: 0f 84 0e 00 00 00           	je	0x100006494 <_coupled_states+0x1b04>
100006486: 48 8b 3d 33 1c 00 00        	movq	7219(%rip), %rdi        ## 0x1000080c0 <_realloc+0x1000080c0>
10000648d: e8 16 17 00 00              	callq	0x100007ba8 <_realloc+0x100007ba8>
100006492: 0f 0b                       	ud2
100006494: 48 8b 05 25 1c 00 00        	movq	7205(%rip), %rax        ## 0x1000080c0 <_realloc+0x1000080c0>
10000649b: 48 8b 38                    	movq	(%rax), %rdi
10000649e: e8 59 17 00 00              	callq	0x100007bfc <_realloc+0x100007bfc>
1000064a3: 48 8b b3 a0 03 00 00        	movq	928(%rbx), %rsi
1000064aa: 48 89 73 08                 	movq	%rsi, 8(%rbx)
1000064ae: 31 c0                       	xorl	%eax, %eax
1000064b0: 48 01 c6                    	addq	%rax, %rsi
1000064b3: 48 8b bb e0 03 00 00        	movq	992(%rbx), %rdi
1000064ba: e8 b9 16 00 00              	callq	0x100007b78 <_realloc+0x100007b78>
1000064bf: 48 8b 43 08                 	movq	8(%rbx), %rax
1000064c3: 48 89 c4                    	movq	%rax, %rsp
1000064c6: 48 8d b3 e0 03 00 00        	leaq	992(%rbx), %rsi
1000064cd: 48 8b bb e0 03 00 00        	movq	992(%rbx), %rdi
1000064d4: e8 9f 16 00 00              	callq	0x100007b78 <_realloc+0x100007b78>
1000064d9: 48 8b 05 d0 1b 00 00        	movq	7120(%rip), %rax        ## 0x1000080b0 <_realloc+0x1000080b0>
1000064e0: 48 8b 00                    	movq	(%rax), %rax
1000064e3: 48 8b 8b 00 04 00 00        	movq	1024(%rbx), %rcx
1000064ea: 48 39 c8                    	cmpq	%rcx, %rax
1000064ed: 0f 85 09 00 00 00           	jne	0x1000064fc <_coupled_states+0x1b6c>
1000064f3: 48 8d 65 f8                 	leaq	-8(%rbp), %rsp
1000064f7: 5b                          	popq	%rbx
1000064f8: 5d                          	popq	%rbp
1000064f9: c3                          	retq
1000064fa: 0f 0b                       	ud2
1000064fc: e8 e3 16 00 00              	callq	0x100007be4 <_realloc+0x100007be4>
100006501: 0f 0b                       	ud2
100006503: 66 2e 0f 1f 84 00 00 00 00 00       	nopw	%cs:(%rax,%rax)
10000650d: 0f 1f 00                    	nopl	(%rax)

0000000100006510 <__ZL3powIiiENSt3__19_MetaBaseIXaasr3std13is_arithmeticIT_EE5valuesr3std13is_arithmeticIT0_EE5valueEE13_EnableIfImplINS0_9__promoteIS2_S3_vEEE4typeES2_S3_>:
100006510: 55                          	pushq	%rbp
100006511: 48 89 e5                    	movq	%rsp, %rbp
100006514: 48 83 ec 10                 	subq	$16, %rsp
100006518: 89 7d fc                    	movl	%edi, -4(%rbp)
10000651b: 89 75 f8                    	movl	%esi, -8(%rbp)
10000651e: f2 0f 2a 45 fc              	cvtsi2sdl	-4(%rbp), %xmm0
100006523: f2 0f 2a 4d f8              	cvtsi2sdl	-8(%rbp), %xmm1
100006528: e8 ed 16 00 00              	callq	0x100007c1a <_realloc+0x100007c1a>
10000652d: 48 83 c4 10                 	addq	$16, %rsp
100006531: 5d                          	popq	%rbp
100006532: c3                          	retq
100006533: 66 2e 0f 1f 84 00 00 00 00 00       	nopw	%cs:(%rax,%rax)
10000653d: 0f 1f 00                    	nopl	(%rax)

0000000100006540 <__ZL3absd>:
100006540: 55                          	pushq	%rbp
100006541: 48 89 e5                    	movq	%rsp, %rbp
100006544: f2 0f 11 45 f8              	movsd	%xmm0, -8(%rbp)
100006549: f2 0f 10 45 f8              	movsd	-8(%rbp), %xmm0         ## xmm0 = mem[0],zero
10000654e: 0f 28 0d eb 16 00 00        	movaps	5867(%rip), %xmm1       ## 0x100007c40 <_realloc+0x100007c40>
100006555: 66 0f db c1                 	pand	%xmm1, %xmm0
100006559: 5d                          	popq	%rbp
10000655a: c3                          	retq
10000655b: 0f 1f 44 00 00              	nopl	(%rax,%rax)

0000000100006560 <__Z8imag_expi>:
100006560: 55                          	pushq	%rbp
100006561: 48 89 e5                    	movq	%rsp, %rbp
100006564: 89 7d f8                    	movl	%edi, -8(%rbp)
100006567: 8b 45 f8                    	movl	-8(%rbp), %eax
10000656a: 89 c2                       	movl	%eax, %edx
10000656c: 83 c2 03                    	addl	$3, %edx
10000656f: 85 c0                       	testl	%eax, %eax
100006571: 89 c1                       	movl	%eax, %ecx
100006573: 0f 48 ca                    	cmovsl	%edx, %ecx
100006576: 83 e1 fc                    	andl	$-4, %ecx
100006579: 29 c8                       	subl	%ecx, %eax
10000657b: 89 45 f4                    	movl	%eax, -12(%rbp)
10000657e: 8b 45 f4                    	movl	-12(%rbp), %eax
100006581: 48 89 45 e8                 	movq	%rax, -24(%rbp)
100006585: 48 83 e8 03                 	subq	$3, %rax
100006589: 0f 87 60 00 00 00           	ja	0x1000065ef <__Z8imag_expi+0x8f>
10000658f: 48 8b 45 e8                 	movq	-24(%rbp), %rax
100006593: 48 8d 0d 6a 00 00 00        	leaq	106(%rip), %rcx         ## 0x100006604 <__Z8imag_expi+0xa4>
10000659a: 48 63 04 81                 	movslq	(%rcx,%rax,4), %rax
10000659e: 48 01 c8                    	addq	%rcx, %rax
1000065a1: ff e0                       	jmpq	*%rax
1000065a3: c7 45 fc 01 00 00 00        	movl	$1, -4(%rbp)
1000065aa: c7 45 f0 01 00 00 00        	movl	$1, -16(%rbp)
1000065b1: e9 47 00 00 00              	jmp	0x1000065fd <__Z8imag_expi+0x9d>
1000065b6: c7 45 fc 00 00 00 00        	movl	$0, -4(%rbp)
1000065bd: c7 45 f0 01 00 00 00        	movl	$1, -16(%rbp)
1000065c4: e9 34 00 00 00              	jmp	0x1000065fd <__Z8imag_expi+0x9d>
1000065c9: c7 45 fc ff ff ff ff        	movl	$4294967295, -4(%rbp)   ## imm = 0xFFFFFFFF
1000065d0: c7 45 f0 01 00 00 00        	movl	$1, -16(%rbp)
1000065d7: e9 21 00 00 00              	jmp	0x1000065fd <__Z8imag_expi+0x9d>
1000065dc: c7 45 fc 00 00 00 00        	movl	$0, -4(%rbp)
1000065e3: c7 45 f0 01 00 00 00        	movl	$1, -16(%rbp)
1000065ea: e9 0e 00 00 00              	jmp	0x1000065fd <__Z8imag_expi+0x9d>
1000065ef: c7 45 fc 00 00 00 00        	movl	$0, -4(%rbp)
1000065f6: c7 45 f0 01 00 00 00        	movl	$1, -16(%rbp)
1000065fd: 8b 45 fc                    	movl	-4(%rbp), %eax
100006600: 5d                          	popq	%rbp
100006601: c3                          	retq
100006602: 66 90                       	nop
100006604: 9f                          	lahf
100006605: ff ff                       	<unknown>
100006607: ff b2 ff ff ff c5           	pushq	-973078529(%rdx)
10000660d: ff ff                       	<unknown>
10000660f: ff d8                       	<unknown>
100006611: ff ff                       	<unknown>
100006613: ff 66 2e                    	jmpq	*46(%rsi)
100006616: 0f 1f 84 00 00 00 00 00     	nopl	(%rax,%rax)
10000661e: 66 90                       	nop

0000000100006620 <__Z13read_qubit_opPKc>:
100006620: 55                          	pushq	%rbp
100006621: 48 89 e5                    	movq	%rsp, %rbp
100006624: 53                          	pushq	%rbx
100006625: 48 83 e4 e0                 	andq	$-32, %rsp
100006629: 48 81 ec a0 02 00 00        	subq	$672, %rsp              ## imm = 0x2A0
100006630: 48 89 e3                    	movq	%rsp, %rbx
100006633: 48 8b 05 76 1a 00 00        	movq	6774(%rip), %rax        ## 0x1000080b0 <_realloc+0x1000080b0>
10000663a: 48 8b 00                    	movq	(%rax), %rax
10000663d: 48 89 83 80 02 00 00        	movq	%rax, 640(%rbx)
100006644: 48 c7 83 60 02 00 00 00 00 00 00    	movq	$0, 608(%rbx)
10000664f: 48 89 bb 50 02 00 00        	movq	%rdi, 592(%rbx)
100006656: 31 c0                       	xorl	%eax, %eax
100006658: 48 8b 0d d9 19 00 00        	movq	6617(%rip), %rcx        ## 0x100008038 <_realloc+0x100008038>
10000665f: 83 39 00                    	cmpl	$0, (%rcx)
100006662: 48 89 83 d0 01 00 00        	movq	%rax, 464(%rbx)
100006669: 0f 84 11 00 00 00           	je	0x100006680 <__Z13read_qubit_opPKc+0x60>
10000666f: bf 60 01 00 00              	movl	$352, %edi              ## imm = 0x160
100006674: e8 59 15 00 00              	callq	0x100007bd2 <_realloc+0x100007bd2>
100006679: 48 89 83 d0 01 00 00        	movq	%rax, 464(%rbx)
100006680: 48 8b 83 d0 01 00 00        	movq	464(%rbx), %rax
100006687: 48 89 83 c0 01 00 00        	movq	%rax, 448(%rbx)
10000668e: 48 83 f8 00                 	cmpq	$0, %rax
100006692: 48 89 83 c8 01 00 00        	movq	%rax, 456(%rbx)
100006699: 0f 85 17 00 00 00           	jne	0x1000066b6 <__Z13read_qubit_opPKc+0x96>
10000669f: 48 89 e0                    	movq	%rsp, %rax
1000066a2: 48 05 a0 fe ff ff           	addq	$-352, %rax             ## imm = 0xFEA0
1000066a8: 48 83 e0 e0                 	andq	$-32, %rax
1000066ac: 48 89 c4                    	movq	%rax, %rsp
1000066af: 48 89 83 c8 01 00 00        	movq	%rax, 456(%rbx)
1000066b6: 48 8b 83 c8 01 00 00        	movq	456(%rbx), %rax
1000066bd: 48 89 83 58 01 00 00        	movq	%rax, 344(%rbx)
1000066c4: 48 89 83 d8 01 00 00        	movq	%rax, 472(%rbx)
1000066cb: 48 89 c1                    	movq	%rax, %rcx
1000066ce: 48 83 c1 20                 	addq	$32, %rcx
1000066d2: 48 89 8b b0 01 00 00        	movq	%rcx, 432(%rbx)
1000066d9: 48 89 c1                    	movq	%rax, %rcx
1000066dc: 48 83 c1 40                 	addq	$64, %rcx
1000066e0: 48 89 8b 60 01 00 00        	movq	%rcx, 352(%rbx)
1000066e7: 48 89 c1                    	movq	%rax, %rcx
1000066ea: 48 83 c1 60                 	addq	$96, %rcx
1000066ee: 48 89 8b 68 01 00 00        	movq	%rcx, 360(%rbx)
1000066f5: 48 89 c1                    	movq	%rax, %rcx
1000066f8: 48 81 c1 80 00 00 00        	addq	$128, %rcx
1000066ff: 48 89 8b 70 01 00 00        	movq	%rcx, 368(%rbx)
100006706: 48 89 c1                    	movq	%rax, %rcx
100006709: 48 81 c1 a0 00 00 00        	addq	$160, %rcx
100006710: 48 89 8b 78 01 00 00        	movq	%rcx, 376(%rbx)
100006717: 48 89 c1                    	movq	%rax, %rcx
10000671a: 48 81 c1 b0 00 00 00        	addq	$176, %rcx
100006721: 48 89 8b 80 01 00 00        	movq	%rcx, 384(%rbx)
100006728: 48 89 c1                    	movq	%rax, %rcx
10000672b: 48 81 c1 d0 00 00 00        	addq	$208, %rcx
100006732: 48 89 8b 88 01 00 00        	movq	%rcx, 392(%rbx)
100006739: 48 89 c1                    	movq	%rax, %rcx
10000673c: 48 81 c1 10 01 00 00        	addq	$272, %rcx              ## imm = 0x110
100006743: 48 89 8b 90 01 00 00        	movq	%rcx, 400(%rbx)
10000674a: 48 89 c1                    	movq	%rax, %rcx
10000674d: 48 81 c1 30 01 00 00        	addq	$304, %rcx              ## imm = 0x130
100006754: 48 89 8b 98 01 00 00        	movq	%rcx, 408(%rbx)
10000675b: 48 c7 00 b3 8a b5 41        	movq	$1102416563, (%rax)     ## imm = 0x41B58AB3
100006762: 48 8d 0d 17 17 00 00        	leaq	5911(%rip), %rcx        ## 0x100007e80 <_realloc+0x100007e80>
100006769: 48 89 48 08                 	movq	%rcx, 8(%rax)
10000676d: 48 8d 0d ac fe ff ff        	leaq	-340(%rip), %rcx        ## 0x100006620 <__Z13read_qubit_opPKc>
100006774: 48 89 48 10                 	movq	%rcx, 16(%rax)
100006778: 48 c1 e8 03                 	shrq	$3, %rax
10000677c: 48 b9 00 00 00 00 00 10 00 00       	movabsq	$17592186044416, %rcx ## imm = 0x100000000000
100006786: 48 09 c8                    	orq	%rcx, %rax
100006789: 48 89 83 a0 01 00 00        	movq	%rax, 416(%rbx)
100006790: 48 b9 f1 f1 f1 f1 f8 f2 f2 f2       	movabsq	$-940422221142035983, %rcx ## imm = 0xF2F2F2F8F1F1F1F1
10000679a: 48 89 08                    	movq	%rcx, (%rax)
10000679d: 48 b9 f8 f2 f2 f2 f8 f2 f2 f2       	movabsq	$-940422221125192968, %rcx ## imm = 0xF2F2F2F8F2F2F2F8
1000067a7: 48 89 48 08                 	movq	%rcx, 8(%rax)
1000067ab: 48 b9 f8 f2 f2 f2 f8 f2 f8 f2       	movabsq	$-938733371264929032, %rcx ## imm = 0xF2F8F2F8F2F2F2F8
1000067b5: 48 89 48 10                 	movq	%rcx, 16(%rax)
1000067b9: 48 b9 f2 f2 f8 f8 f8 f8 f2 f2       	movabsq	$-940415623954369806, %rcx ## imm = 0xF2F2F8F8F8F8F2F2
1000067c3: 48 89 48 18                 	movq	%rcx, 24(%rax)
1000067c7: 48 b9 f2 f2 f8 f2 f2 f2 f8 f3       	movabsq	$-866675802996411662, %rcx ## imm = 0xF3F8F2F2F2F8F2F2
1000067d1: 48 89 48 20                 	movq	%rcx, 32(%rax)
1000067d5: c7 40 28 f3 f3 f3 f3        	movl	$4092851187, 40(%rax)   ## imm = 0xF3F3F3F3
1000067dc: 48 8b bb 50 02 00 00        	movq	592(%rbx), %rdi
1000067e3: 48 8d 35 76 15 00 00        	leaq	5494(%rip), %rsi        ## 0x100007d60 <_.str.5>
1000067ea: e8 13 14 00 00              	callq	0x100007c02 <_realloc+0x100007c02>
1000067ef: 48 89 c1                    	movq	%rax, %rcx
1000067f2: 48 8b 83 a0 01 00 00        	movq	416(%rbx), %rax
1000067f9: 48 89 8b 48 02 00 00        	movq	%rcx, 584(%rbx)
100006800: 48 8b 8b 48 02 00 00        	movq	584(%rbx), %rcx
100006807: 48 89 8b a8 01 00 00        	movq	%rcx, 424(%rbx)
10000680e: c6 40 04 00                 	movb	$0, 4(%rax)
100006812: e8 a9 0e 00 00              	callq	0x1000076c0 <__ZNSt3__1L15__get_nullptr_tEv>
100006817: 48 89 c1                    	movq	%rax, %rcx
10000681a: 48 8b 83 b0 01 00 00        	movq	432(%rbx), %rax
100006821: 48 89 8b b8 01 00 00        	movq	%rcx, 440(%rbx)
100006828: 48 c1 e8 03                 	shrq	$3, %rax
10000682c: 48 b9 00 00 00 00 00 10 00 00       	movabsq	$17592186044416, %rcx ## imm = 0x100000000000
100006836: 48 09 c8                    	orq	%rcx, %rax
100006839: 80 38 00                    	cmpb	$0, (%rax)
10000683c: 0f 84 0e 00 00 00           	je	0x100006850 <__Z13read_qubit_opPKc+0x230>
100006842: 48 8b bb b0 01 00 00        	movq	432(%rbx), %rdi
100006849: e8 6c 13 00 00              	callq	0x100007bba <_realloc+0x100007bba>
10000684e: 0f 0b                       	ud2
100006850: 48 8b bb b0 01 00 00        	movq	432(%rbx), %rdi
100006857: 48 8b 83 b8 01 00 00        	movq	440(%rbx), %rax
10000685e: 48 89 07                    	movq	%rax, (%rdi)
100006861: e8 ca 0f 00 00              	callq	0x100007830 <__ZNKSt3__19nullptr_tcvPT_I7__sFILEEEv>
100006866: 48 8b 93 a0 01 00 00        	movq	416(%rbx), %rdx
10000686d: 48 89 c1                    	movq	%rax, %rcx
100006870: 48 8b 83 a8 01 00 00        	movq	424(%rbx), %rax
100006877: c6 42 04 f8                 	movb	$-8, 4(%rdx)
10000687b: 48 39 c8                    	cmpq	%rcx, %rax
10000687e: 0f 85 d1 00 00 00           	jne	0x100006955 <__Z13read_qubit_opPKc+0x335>
100006884: 48 8b 05 2d 18 00 00        	movq	6189(%rip), %rax        ## 0x1000080b8 <_realloc+0x1000080b8>
10000688b: 48 c1 e8 03                 	shrq	$3, %rax
10000688f: 48 b9 00 00 00 00 00 10 00 00       	movabsq	$17592186044416, %rcx ## imm = 0x100000000000
100006899: 48 09 c8                    	orq	%rcx, %rax
10000689c: 80 38 00                    	cmpb	$0, (%rax)
10000689f: 0f 84 0e 00 00 00           	je	0x1000068b3 <__Z13read_qubit_opPKc+0x293>
1000068a5: 48 8b 3d 0c 18 00 00        	movq	6156(%rip), %rdi        ## 0x1000080b8 <_realloc+0x1000080b8>
1000068ac: e8 f7 12 00 00              	callq	0x100007ba8 <_realloc+0x100007ba8>
1000068b1: 0f 0b                       	ud2
1000068b3: 48 8b 05 fe 17 00 00        	movq	6142(%rip), %rax        ## 0x1000080b8 <_realloc+0x1000080b8>
1000068ba: 48 8b 38                    	movq	(%rax), %rdi
1000068bd: 48 8b 93 50 02 00 00        	movq	592(%rbx), %rdx
1000068c4: 48 8d 35 b5 14 00 00        	leaq	5301(%rip), %rsi        ## 0x100007d80 <_.str.6>
1000068cb: b0 00                       	movb	$0, %al
1000068cd: e8 36 13 00 00              	callq	0x100007c08 <_realloc+0x100007c08>
1000068d2: 48 8b 83 a0 01 00 00        	movq	416(%rbx), %rax
1000068d9: c6 40 08 00                 	movb	$0, 8(%rax)
1000068dd: e8 de 0d 00 00              	callq	0x1000076c0 <__ZNSt3__1L15__get_nullptr_tEv>
1000068e2: 48 89 c1                    	movq	%rax, %rcx
1000068e5: 48 8b 83 60 01 00 00        	movq	352(%rbx), %rax
1000068ec: 48 89 8b 50 01 00 00        	movq	%rcx, 336(%rbx)
1000068f3: 48 c1 e8 03                 	shrq	$3, %rax
1000068f7: 48 b9 00 00 00 00 00 10 00 00       	movabsq	$17592186044416, %rcx ## imm = 0x100000000000
100006901: 48 09 c8                    	orq	%rcx, %rax
100006904: 80 38 00                    	cmpb	$0, (%rax)
100006907: 0f 84 0e 00 00 00           	je	0x10000691b <__Z13read_qubit_opPKc+0x2fb>
10000690d: 48 8b bb 60 01 00 00        	movq	352(%rbx), %rdi
100006914: e8 a1 12 00 00              	callq	0x100007bba <_realloc+0x100007bba>
100006919: 0f 0b                       	ud2
10000691b: 48 8b bb 60 01 00 00        	movq	352(%rbx), %rdi
100006922: 48 8b 83 50 01 00 00        	movq	336(%rbx), %rax
100006929: 48 89 07                    	movq	%rax, (%rdi)
10000692c: e8 0f 0f 00 00              	callq	0x100007840 <__ZNKSt3__19nullptr_tcvPT_I7tuple_tEEv>
100006931: 48 89 c1                    	movq	%rax, %rcx
100006934: 48 8b 83 a0 01 00 00        	movq	416(%rbx), %rax
10000693b: 48 89 8b 58 02 00 00        	movq	%rcx, 600(%rbx)
100006942: c6 40 08 f8                 	movb	$-8, 8(%rax)
100006946: c7 83 44 02 00 00 01 00 00 00       	movl	$1, 580(%rbx)
100006950: e9 9f 0c 00 00              	jmp	0x1000075f4 <__Z13read_qubit_opPKc+0xfd4>
100006955: 48 8b bb 68 01 00 00        	movq	360(%rbx), %rdi
10000695c: 48 8b 83 a0 01 00 00        	movq	416(%rbx), %rax
100006963: c6 40 0c 00                 	movb	$0, 12(%rax)
100006967: 48 8b 8b 48 02 00 00        	movq	584(%rbx), %rcx
10000696e: be 08 00 00 00              	movl	$8, %esi
100006973: ba 01 00 00 00              	movl	$1, %edx
100006978: e8 91 12 00 00              	callq	0x100007c0e <_realloc+0x100007c0e>
10000697d: 48 8b 83 68 01 00 00        	movq	360(%rbx), %rax
100006984: 48 c1 e8 03                 	shrq	$3, %rax
100006988: 48 b9 00 00 00 00 00 10 00 00       	movabsq	$17592186044416, %rcx ## imm = 0x100000000000
100006992: 48 09 c8                    	orq	%rcx, %rax
100006995: 80 38 00                    	cmpb	$0, (%rax)
100006998: 0f 84 0e 00 00 00           	je	0x1000069ac <__Z13read_qubit_opPKc+0x38c>
10000699e: 48 8b bb 68 01 00 00        	movq	360(%rbx), %rdi
1000069a5: e8 fe 11 00 00              	callq	0x100007ba8 <_realloc+0x100007ba8>
1000069aa: 0f 0b                       	ud2
1000069ac: 48 8b 83 68 01 00 00        	movq	360(%rbx), %rax
1000069b3: f2 0f 10 00                 	movsd	(%rax), %xmm0           ## xmm0 = mem[0],zero
1000069b7: f2 0f 10 0d 91 12 00 00     	movsd	4753(%rip), %xmm1       ## xmm1 = mem[0],zero
                                                                        ## 0x100007c50 <_realloc+0x100007c50>
1000069bf: 66 0f 2e c1                 	ucomisd	%xmm1, %xmm0
1000069c3: 0f 85 0b 00 00 00           	jne	0x1000069d4 <__Z13read_qubit_opPKc+0x3b4>
1000069c9: 0f 8a 05 00 00 00           	jp	0x1000069d4 <__Z13read_qubit_opPKc+0x3b4>
1000069cf: e9 dd 00 00 00              	jmp	0x100006ab1 <__Z13read_qubit_opPKc+0x491>
1000069d4: 48 8b 05 dd 16 00 00        	movq	5853(%rip), %rax        ## 0x1000080b8 <_realloc+0x1000080b8>
1000069db: 48 c1 e8 03                 	shrq	$3, %rax
1000069df: 48 b9 00 00 00 00 00 10 00 00       	movabsq	$17592186044416, %rcx ## imm = 0x100000000000
1000069e9: 48 09 c8                    	orq	%rcx, %rax
1000069ec: 80 38 00                    	cmpb	$0, (%rax)
1000069ef: 0f 84 0e 00 00 00           	je	0x100006a03 <__Z13read_qubit_opPKc+0x3e3>
1000069f5: 48 8b 3d bc 16 00 00        	movq	5820(%rip), %rdi        ## 0x1000080b8 <_realloc+0x1000080b8>
1000069fc: e8 a7 11 00 00              	callq	0x100007ba8 <_realloc+0x100007ba8>
100006a01: 0f 0b                       	ud2
100006a03: 48 8b 05 ae 16 00 00        	movq	5806(%rip), %rax        ## 0x1000080b8 <_realloc+0x1000080b8>
100006a0a: 48 8b 38                    	movq	(%rax), %rdi
100006a0d: 48 8b 93 50 02 00 00        	movq	592(%rbx), %rdx
100006a14: 48 8d 35 a5 13 00 00        	leaq	5029(%rip), %rsi        ## 0x100007dc0 <_.str.7>
100006a1b: b0 00                       	movb	$0, %al
100006a1d: e8 e6 11 00 00              	callq	0x100007c08 <_realloc+0x100007c08>
100006a22: 48 8b bb 48 02 00 00        	movq	584(%rbx), %rdi
100006a29: e8 c2 11 00 00              	callq	0x100007bf0 <_realloc+0x100007bf0>
100006a2e: 48 8b 83 a0 01 00 00        	movq	416(%rbx), %rax
100006a35: c6 40 10 00                 	movb	$0, 16(%rax)
100006a39: e8 82 0c 00 00              	callq	0x1000076c0 <__ZNSt3__1L15__get_nullptr_tEv>
100006a3e: 48 89 c1                    	movq	%rax, %rcx
100006a41: 48 8b 83 70 01 00 00        	movq	368(%rbx), %rax
100006a48: 48 89 8b 48 01 00 00        	movq	%rcx, 328(%rbx)
100006a4f: 48 c1 e8 03                 	shrq	$3, %rax
100006a53: 48 b9 00 00 00 00 00 10 00 00       	movabsq	$17592186044416, %rcx ## imm = 0x100000000000
100006a5d: 48 09 c8                    	orq	%rcx, %rax
100006a60: 80 38 00                    	cmpb	$0, (%rax)
100006a63: 0f 84 0e 00 00 00           	je	0x100006a77 <__Z13read_qubit_opPKc+0x457>
100006a69: 48 8b bb 70 01 00 00        	movq	368(%rbx), %rdi
100006a70: e8 45 11 00 00              	callq	0x100007bba <_realloc+0x100007bba>
100006a75: 0f 0b                       	ud2
100006a77: 48 8b bb 70 01 00 00        	movq	368(%rbx), %rdi
100006a7e: 48 8b 83 48 01 00 00        	movq	328(%rbx), %rax
100006a85: 48 89 07                    	movq	%rax, (%rdi)
100006a88: e8 b3 0d 00 00              	callq	0x100007840 <__ZNKSt3__19nullptr_tcvPT_I7tuple_tEEv>
100006a8d: 48 89 c1                    	movq	%rax, %rcx
100006a90: 48 8b 83 a0 01 00 00        	movq	416(%rbx), %rax
100006a97: 48 89 8b 58 02 00 00        	movq	%rcx, 600(%rbx)
100006a9e: c6 40 10 f8                 	movb	$-8, 16(%rax)
100006aa2: c7 83 44 02 00 00 01 00 00 00       	movl	$1, 580(%rbx)
100006aac: e9 38 0b 00 00              	jmp	0x1000075e9 <__Z13read_qubit_opPKc+0xfc9>
100006ab1: 48 8b bb 78 01 00 00        	movq	376(%rbx), %rdi
100006ab8: 48 8b 83 a0 01 00 00        	movq	416(%rbx), %rax
100006abf: c6 40 14 04                 	movb	$4, 20(%rax)
100006ac3: 48 8b 8b 48 02 00 00        	movq	584(%rbx), %rcx
100006aca: be 04 00 00 00              	movl	$4, %esi
100006acf: ba 01 00 00 00              	movl	$1, %edx
100006ad4: e8 35 11 00 00              	callq	0x100007c0e <_realloc+0x100007c0e>
100006ad9: 48 8b 83 78 01 00 00        	movq	376(%rbx), %rax
100006ae0: 48 c1 e8 03                 	shrq	$3, %rax
100006ae4: 48 b9 00 00 00 00 00 10 00 00       	movabsq	$17592186044416, %rcx ## imm = 0x100000000000
100006aee: 48 09 c8                    	orq	%rcx, %rax
100006af1: 8a 00                       	movb	(%rax), %al
100006af3: 88 83 47 01 00 00           	movb	%al, 327(%rbx)
100006af9: 3c 00                       	cmpb	$0, %al
100006afb: 0f 84 2b 00 00 00           	je	0x100006b2c <__Z13read_qubit_opPKc+0x50c>
100006b01: 8a 8b 47 01 00 00           	movb	327(%rbx), %cl
100006b07: 48 8b 83 78 01 00 00        	movq	376(%rbx), %rax
100006b0e: 48 83 e0 07                 	andq	$7, %rax
100006b12: 48 83 c0 03                 	addq	$3, %rax
100006b16: 38 c8                       	cmpb	%cl, %al
100006b18: 0f 8c 0e 00 00 00           	jl	0x100006b2c <__Z13read_qubit_opPKc+0x50c>
100006b1e: 48 8b bb 78 01 00 00        	movq	376(%rbx), %rdi
100006b25: e8 78 10 00 00              	callq	0x100007ba2 <_realloc+0x100007ba2>
100006b2a: 0f 0b                       	ud2
100006b2c: 48 8b 83 a0 01 00 00        	movq	416(%rbx), %rax
100006b33: 48 8b 8b 78 01 00 00        	movq	376(%rbx), %rcx
100006b3a: 8b 09                       	movl	(%rcx), %ecx
100006b3c: 89 0d fe 58 00 00           	movl	%ecx, 22782(%rip)       ## 0x10000c440 <_global_n_qubits>
100006b42: c6 40 16 00                 	movb	$0, 22(%rax)
100006b46: e8 75 0b 00 00              	callq	0x1000076c0 <__ZNSt3__1L15__get_nullptr_tEv>
100006b4b: 48 89 c1                    	movq	%rax, %rcx
100006b4e: 48 8b 83 80 01 00 00        	movq	384(%rbx), %rax
100006b55: 48 89 8b 38 01 00 00        	movq	%rcx, 312(%rbx)
100006b5c: 48 c1 e8 03                 	shrq	$3, %rax
100006b60: 48 b9 00 00 00 00 00 10 00 00       	movabsq	$17592186044416, %rcx ## imm = 0x100000000000
100006b6a: 48 09 c8                    	orq	%rcx, %rax
100006b6d: 80 38 00                    	cmpb	$0, (%rax)
100006b70: 0f 84 0e 00 00 00           	je	0x100006b84 <__Z13read_qubit_opPKc+0x564>
100006b76: 48 8b bb 80 01 00 00        	movq	384(%rbx), %rdi
100006b7d: e8 38 10 00 00              	callq	0x100007bba <_realloc+0x100007bba>
100006b82: 0f 0b                       	ud2
100006b84: 48 8b bb 80 01 00 00        	movq	384(%rbx), %rdi
100006b8b: 48 8b 83 38 01 00 00        	movq	312(%rbx), %rax
100006b92: 48 89 07                    	movq	%rax, (%rdi)
100006b95: e8 a6 0c 00 00              	callq	0x100007840 <__ZNKSt3__19nullptr_tcvPT_I7tuple_tEEv>
100006b9a: 48 8b 8b a0 01 00 00        	movq	416(%rbx), %rcx
100006ba1: c6 41 16 f8                 	movb	$-8, 22(%rcx)
100006ba5: 48 89 83 38 02 00 00        	movq	%rax, 568(%rbx)
100006bac: c7 83 34 02 00 00 00 00 00 00       	movl	$0, 564(%rbx)
100006bb6: e9 00 00 00 00              	jmp	0x100006bbb <__Z13read_qubit_opPKc+0x59b>
100006bbb: 48 8b bb 88 01 00 00        	movq	392(%rbx), %rdi
100006bc2: 48 8b 83 a0 01 00 00        	movq	416(%rbx), %rax
100006bc9: c7 40 1a 00 00 00 00        	movl	$0, 26(%rax)
100006bd0: 48 83 c7 08                 	addq	$8, %rdi
100006bd4: 48 8b 8b 48 02 00 00        	movq	584(%rbx), %rcx
100006bdb: be 10 00 00 00              	movl	$16, %esi
100006be0: ba 01 00 00 00              	movl	$1, %edx
100006be5: e8 24 10 00 00              	callq	0x100007c0e <_realloc+0x100007c0e>
100006bea: 48 8b bb 48 02 00 00        	movq	584(%rbx), %rdi
100006bf1: e8 00 10 00 00              	callq	0x100007bf6 <_realloc+0x100007bf6>
100006bf6: 83 f8 00                    	cmpl	$0, %eax
100006bf9: 0f 84 0f 00 00 00           	je	0x100006c0e <__Z13read_qubit_opPKc+0x5ee>
100006bff: c7 83 44 02 00 00 03 00 00 00       	movl	$3, 580(%rbx)
100006c09: e9 81 09 00 00              	jmp	0x10000758f <__Z13read_qubit_opPKc+0xf6f>
100006c0e: 48 8b 83 78 01 00 00        	movq	376(%rbx), %rax
100006c15: 48 c1 e8 03                 	shrq	$3, %rax
100006c19: 48 b9 00 00 00 00 00 10 00 00       	movabsq	$17592186044416, %rcx ## imm = 0x100000000000
100006c23: 48 09 c8                    	orq	%rcx, %rax
100006c26: 8a 00                       	movb	(%rax), %al
100006c28: 88 83 37 01 00 00           	movb	%al, 311(%rbx)
100006c2e: 3c 00                       	cmpb	$0, %al
100006c30: 0f 84 2b 00 00 00           	je	0x100006c61 <__Z13read_qubit_opPKc+0x641>
100006c36: 8a 8b 37 01 00 00           	movb	311(%rbx), %cl
100006c3c: 48 8b 83 78 01 00 00        	movq	376(%rbx), %rax
100006c43: 48 83 e0 07                 	andq	$7, %rax
100006c47: 48 83 c0 03                 	addq	$3, %rax
100006c4b: 38 c8                       	cmpb	%cl, %al
100006c4d: 0f 8c 0e 00 00 00           	jl	0x100006c61 <__Z13read_qubit_opPKc+0x641>
100006c53: 48 8b bb 78 01 00 00        	movq	376(%rbx), %rdi
100006c5a: e8 43 0f 00 00              	callq	0x100007ba2 <_realloc+0x100007ba2>
100006c5f: 0f 0b                       	ud2
100006c61: 48 8b 83 78 01 00 00        	movq	376(%rbx), %rax
100006c68: 8b 00                       	movl	(%rax), %eax
100006c6a: 89 c1                       	movl	%eax, %ecx
100006c6c: 48 89 8b 18 01 00 00        	movq	%rcx, 280(%rbx)
100006c73: 48 89 e0                    	movq	%rsp, %rax
100006c76: 48 89 83 28 02 00 00        	movq	%rax, 552(%rbx)
100006c7d: 48 89 ce                    	movq	%rcx, %rsi
100006c80: 48 c1 e6 02                 	shlq	$2, %rsi
100006c84: 89 f0                       	movl	%esi, %eax
100006c86: 83 e0 1c                    	andl	$28, %eax
100006c89: ba 20 00 00 00              	movl	$32, %edx
100006c8e: 48 29 c2                    	subq	%rax, %rdx
100006c91: 31 c0                       	xorl	%eax, %eax
100006c93: 48 89 d7                    	movq	%rdx, %rdi
100006c96: 48 83 ef 20                 	subq	$32, %rdi
100006c9a: 48 0f 45 c2                 	cmovneq	%rdx, %rax
100006c9e: 48 8d 44 88 4f              	leaq	79(%rax,%rcx,4), %rax
100006ca3: 48 83 e0 f0                 	andq	$-16, %rax
100006ca7: 48 89 e7                    	movq	%rsp, %rdi
100006caa: 48 29 c7                    	subq	%rax, %rdi
100006cad: 48 83 e7 e0                 	andq	$-32, %rdi
100006cb1: 48 89 bb 10 01 00 00        	movq	%rdi, 272(%rbx)
100006cb8: 48 89 fc                    	movq	%rdi, %rsp
100006cbb: 48 83 c7 20                 	addq	$32, %rdi
100006cbf: 48 89 bb 20 01 00 00        	movq	%rdi, 288(%rbx)
100006cc6: e8 a7 0e 00 00              	callq	0x100007b72 <_realloc+0x100007b72>
100006ccb: 48 8b b3 10 01 00 00        	movq	272(%rbx), %rsi
100006cd2: 48 8b 93 18 01 00 00        	movq	280(%rbx), %rdx
100006cd9: 48 8b 8b 20 01 00 00        	movq	288(%rbx), %rcx
100006ce0: 48 8b 83 78 01 00 00        	movq	376(%rbx), %rax
100006ce7: 48 89 b3 60 02 00 00        	movq	%rsi, 608(%rbx)
100006cee: 48 89 93 20 02 00 00        	movq	%rdx, 544(%rbx)
100006cf5: 48 89 8b 28 01 00 00        	movq	%rcx, 296(%rbx)
100006cfc: 48 c1 e8 03                 	shrq	$3, %rax
100006d00: 48 b9 00 00 00 00 00 10 00 00       	movabsq	$17592186044416, %rcx ## imm = 0x100000000000
100006d0a: 48 09 c8                    	orq	%rcx, %rax
100006d0d: 8a 00                       	movb	(%rax), %al
100006d0f: 88 83 36 01 00 00           	movb	%al, 310(%rbx)
100006d15: 3c 00                       	cmpb	$0, %al
100006d17: 0f 84 2b 00 00 00           	je	0x100006d48 <__Z13read_qubit_opPKc+0x728>
100006d1d: 8a 8b 36 01 00 00           	movb	310(%rbx), %cl
100006d23: 48 8b 83 78 01 00 00        	movq	376(%rbx), %rax
100006d2a: 48 83 e0 07                 	andq	$7, %rax
100006d2e: 48 83 c0 03                 	addq	$3, %rax
100006d32: 38 c8                       	cmpb	%cl, %al
100006d34: 0f 8c 0e 00 00 00           	jl	0x100006d48 <__Z13read_qubit_opPKc+0x728>
100006d3a: 48 8b bb 78 01 00 00        	movq	376(%rbx), %rdi
100006d41: e8 5c 0e 00 00              	callq	0x100007ba2 <_realloc+0x100007ba2>
100006d46: 0f 0b                       	ud2
100006d48: 48 8b bb 28 01 00 00        	movq	296(%rbx), %rdi
100006d4f: 48 8b 83 78 01 00 00        	movq	376(%rbx), %rax
100006d56: 48 63 10                    	movslq	(%rax), %rdx
100006d59: 48 8b 8b 48 02 00 00        	movq	584(%rbx), %rcx
100006d60: be 04 00 00 00              	movl	$4, %esi
100006d65: e8 a4 0e 00 00              	callq	0x100007c0e <_realloc+0x100007c0e>
100006d6a: 48 8b 83 a0 01 00 00        	movq	416(%rbx), %rax
100006d71: c7 83 1c 02 00 00 00 00 00 00       	movl	$0, 540(%rbx)
100006d7b: c6 40 22 00                 	movb	$0, 34(%rax)
100006d7f: e8 3c 09 00 00              	callq	0x1000076c0 <__ZNSt3__1L15__get_nullptr_tEv>
100006d84: 48 89 c1                    	movq	%rax, %rcx
100006d87: 48 8b 83 90 01 00 00        	movq	400(%rbx), %rax
100006d8e: 48 89 8b 08 01 00 00        	movq	%rcx, 264(%rbx)
100006d95: 48 c1 e8 03                 	shrq	$3, %rax
100006d99: 48 b9 00 00 00 00 00 10 00 00       	movabsq	$17592186044416, %rcx ## imm = 0x100000000000
100006da3: 48 09 c8                    	orq	%rcx, %rax
100006da6: 80 38 00                    	cmpb	$0, (%rax)
100006da9: 0f 84 0e 00 00 00           	je	0x100006dbd <__Z13read_qubit_opPKc+0x79d>
100006daf: 48 8b bb 90 01 00 00        	movq	400(%rbx), %rdi
100006db6: e8 ff 0d 00 00              	callq	0x100007bba <_realloc+0x100007bba>
100006dbb: 0f 0b                       	ud2
100006dbd: 48 8b bb 90 01 00 00        	movq	400(%rbx), %rdi
100006dc4: 48 8b 83 08 01 00 00        	movq	264(%rbx), %rax
100006dcb: 48 89 07                    	movq	%rax, (%rdi)
100006dce: e8 7d 0a 00 00              	callq	0x100007850 <__ZNKSt3__19nullptr_tcvPT_IiEEv>
100006dd3: 48 89 c1                    	movq	%rax, %rcx
100006dd6: 48 8b 83 a0 01 00 00        	movq	416(%rbx), %rax
100006ddd: c6 40 22 f8                 	movb	$-8, 34(%rax)
100006de1: 48 89 8b 10 02 00 00        	movq	%rcx, 528(%rbx)
100006de8: c6 40 26 00                 	movb	$0, 38(%rax)
100006dec: e8 cf 08 00 00              	callq	0x1000076c0 <__ZNSt3__1L15__get_nullptr_tEv>
100006df1: 48 89 c1                    	movq	%rax, %rcx
100006df4: 48 8b 83 98 01 00 00        	movq	408(%rbx), %rax
100006dfb: 48 89 8b 00 01 00 00        	movq	%rcx, 256(%rbx)
100006e02: 48 c1 e8 03                 	shrq	$3, %rax
100006e06: 48 b9 00 00 00 00 00 10 00 00       	movabsq	$17592186044416, %rcx ## imm = 0x100000000000
100006e10: 48 09 c8                    	orq	%rcx, %rax
100006e13: 80 38 00                    	cmpb	$0, (%rax)
100006e16: 0f 84 0e 00 00 00           	je	0x100006e2a <__Z13read_qubit_opPKc+0x80a>
100006e1c: 48 8b bb 98 01 00 00        	movq	408(%rbx), %rdi
100006e23: e8 92 0d 00 00              	callq	0x100007bba <_realloc+0x100007bba>
100006e28: 0f 0b                       	ud2
100006e2a: 48 8b bb 98 01 00 00        	movq	408(%rbx), %rdi
100006e31: 48 8b 83 00 01 00 00        	movq	256(%rbx), %rax
100006e38: 48 89 07                    	movq	%rax, (%rdi)
100006e3b: e8 10 0a 00 00              	callq	0x100007850 <__ZNKSt3__19nullptr_tcvPT_IiEEv>
100006e40: 48 8b 8b a0 01 00 00        	movq	416(%rbx), %rcx
100006e47: c6 41 26 f8                 	movb	$-8, 38(%rcx)
100006e4b: 48 89 83 08 02 00 00        	movq	%rax, 520(%rbx)
100006e52: 48 c7 83 00 02 00 00 00 00 00 00    	movq	$0, 512(%rbx)
100006e5d: 48 8b 83 78 01 00 00        	movq	376(%rbx), %rax
100006e64: 48 8b 8b 00 02 00 00        	movq	512(%rbx), %rcx
100006e6b: 48 89 8b f0 00 00 00        	movq	%rcx, 240(%rbx)
100006e72: 48 c1 e8 03                 	shrq	$3, %rax
100006e76: 48 b9 00 00 00 00 00 10 00 00       	movabsq	$17592186044416, %rcx ## imm = 0x100000000000
100006e80: 48 09 c8                    	orq	%rcx, %rax
100006e83: 8a 00                       	movb	(%rax), %al
100006e85: 88 83 ff 00 00 00           	movb	%al, 255(%rbx)
100006e8b: 3c 00                       	cmpb	$0, %al
100006e8d: 0f 84 2b 00 00 00           	je	0x100006ebe <__Z13read_qubit_opPKc+0x89e>
100006e93: 8a 8b ff 00 00 00           	movb	255(%rbx), %cl
100006e99: 48 8b 83 78 01 00 00        	movq	376(%rbx), %rax
100006ea0: 48 83 e0 07                 	andq	$7, %rax
100006ea4: 48 83 c0 03                 	addq	$3, %rax
100006ea8: 38 c8                       	cmpb	%cl, %al
100006eaa: 0f 8c 0e 00 00 00           	jl	0x100006ebe <__Z13read_qubit_opPKc+0x89e>
100006eb0: 48 8b bb 78 01 00 00        	movq	376(%rbx), %rdi
100006eb7: e8 e6 0c 00 00              	callq	0x100007ba2 <_realloc+0x100007ba2>
100006ebc: 0f 0b                       	ud2
100006ebe: 48 8b 83 f0 00 00 00        	movq	240(%rbx), %rax
100006ec5: 48 8b 8b 78 01 00 00        	movq	376(%rbx), %rcx
100006ecc: 48 63 09                    	movslq	(%rcx), %rcx
100006ecf: 48 39 c8                    	cmpq	%rcx, %rax
100006ed2: 0f 82 0f 00 00 00           	jb	0x100006ee7 <__Z13read_qubit_opPKc+0x8c7>
100006ed8: c7 83 44 02 00 00 04 00 00 00       	movl	$4, 580(%rbx)
100006ee2: e9 5f 02 00 00              	jmp	0x100007146 <__Z13read_qubit_opPKc+0xb26>
100006ee7: 48 8b 83 20 01 00 00        	movq	288(%rbx), %rax
100006eee: 48 8b 8b 00 02 00 00        	movq	512(%rbx), %rcx
100006ef5: 48 c1 e1 02                 	shlq	$2, %rcx
100006ef9: 48 01 c8                    	addq	%rcx, %rax
100006efc: 48 89 83 e0 00 00 00        	movq	%rax, 224(%rbx)
100006f03: 48 c1 e8 03                 	shrq	$3, %rax
100006f07: 48 b9 00 00 00 00 00 10 00 00       	movabsq	$17592186044416, %rcx ## imm = 0x100000000000
100006f11: 48 09 c8                    	orq	%rcx, %rax
100006f14: 8a 00                       	movb	(%rax), %al
100006f16: 88 83 ef 00 00 00           	movb	%al, 239(%rbx)
100006f1c: 3c 00                       	cmpb	$0, %al
100006f1e: 0f 84 2b 00 00 00           	je	0x100006f4f <__Z13read_qubit_opPKc+0x92f>
100006f24: 8a 8b ef 00 00 00           	movb	239(%rbx), %cl
100006f2a: 48 8b 83 e0 00 00 00        	movq	224(%rbx), %rax
100006f31: 48 83 e0 07                 	andq	$7, %rax
100006f35: 48 83 c0 03                 	addq	$3, %rax
100006f39: 38 c8                       	cmpb	%cl, %al
100006f3b: 0f 8c 0e 00 00 00           	jl	0x100006f4f <__Z13read_qubit_opPKc+0x92f>
100006f41: 48 8b bb e0 00 00 00        	movq	224(%rbx), %rdi
100006f48: e8 55 0c 00 00              	callq	0x100007ba2 <_realloc+0x100007ba2>
100006f4d: 0f 0b                       	ud2
100006f4f: 48 8b 83 e0 00 00 00        	movq	224(%rbx), %rax
100006f56: 83 38 00                    	cmpl	$0, (%rax)
100006f59: 0f 84 cb 01 00 00           	je	0x10000712a <__Z13read_qubit_opPKc+0xb0a>
100006f5f: 48 8b bb 10 02 00 00        	movq	528(%rbx), %rdi
100006f66: 8b 83 1c 02 00 00           	movl	540(%rbx), %eax
100006f6c: 83 c0 01                    	addl	$1, %eax
100006f6f: 89 83 1c 02 00 00           	movl	%eax, 540(%rbx)
100006f75: 48 63 f0                    	movslq	%eax, %rsi
100006f78: 48 c1 e6 02                 	shlq	$2, %rsi
100006f7c: e8 a5 0c 00 00              	callq	0x100007c26 <_realloc+0x100007c26>
100006f81: 48 89 83 10 02 00 00        	movq	%rax, 528(%rbx)
100006f88: 8b 83 1c 02 00 00           	movl	540(%rbx), %eax
100006f8e: 83 e8 01                    	subl	$1, %eax
100006f91: 89 83 fc 01 00 00           	movl	%eax, 508(%rbx)
100006f97: 48 8b 83 00 02 00 00        	movq	512(%rbx), %rax
100006f9e: 89 83 cc 00 00 00           	movl	%eax, 204(%rbx)
100006fa4: 48 8b 83 10 02 00 00        	movq	528(%rbx), %rax
100006fab: 48 63 8b fc 01 00 00        	movslq	508(%rbx), %rcx
100006fb2: 48 c1 e1 02                 	shlq	$2, %rcx
100006fb6: 48 01 c8                    	addq	%rcx, %rax
100006fb9: 48 89 83 d0 00 00 00        	movq	%rax, 208(%rbx)
100006fc0: 48 c1 e8 03                 	shrq	$3, %rax
100006fc4: 48 b9 00 00 00 00 00 10 00 00       	movabsq	$17592186044416, %rcx ## imm = 0x100000000000
100006fce: 48 09 c8                    	orq	%rcx, %rax
100006fd1: 8a 00                       	movb	(%rax), %al
100006fd3: 88 83 df 00 00 00           	movb	%al, 223(%rbx)
100006fd9: 3c 00                       	cmpb	$0, %al
100006fdb: 0f 84 2b 00 00 00           	je	0x10000700c <__Z13read_qubit_opPKc+0x9ec>
100006fe1: 8a 8b df 00 00 00           	movb	223(%rbx), %cl
100006fe7: 48 8b 83 d0 00 00 00        	movq	208(%rbx), %rax
100006fee: 48 83 e0 07                 	andq	$7, %rax
100006ff2: 48 83 c0 03                 	addq	$3, %rax
100006ff6: 38 c8                       	cmpb	%cl, %al
100006ff8: 0f 8c 0e 00 00 00           	jl	0x10000700c <__Z13read_qubit_opPKc+0x9ec>
100006ffe: 48 8b bb d0 00 00 00        	movq	208(%rbx), %rdi
100007005: e8 aa 0b 00 00              	callq	0x100007bb4 <_realloc+0x100007bb4>
10000700a: 0f 0b                       	ud2
10000700c: 48 8b 83 d0 00 00 00        	movq	208(%rbx), %rax
100007013: 8b 8b cc 00 00 00           	movl	204(%rbx), %ecx
100007019: 89 08                       	movl	%ecx, (%rax)
10000701b: 48 8b bb 08 02 00 00        	movq	520(%rbx), %rdi
100007022: 48 63 b3 1c 02 00 00        	movslq	540(%rbx), %rsi
100007029: 48 c1 e6 02                 	shlq	$2, %rsi
10000702d: e8 f4 0b 00 00              	callq	0x100007c26 <_realloc+0x100007c26>
100007032: 48 89 c1                    	movq	%rax, %rcx
100007035: 48 8b 83 20 01 00 00        	movq	288(%rbx), %rax
10000703c: 48 89 8b 08 02 00 00        	movq	%rcx, 520(%rbx)
100007043: 48 8b 8b 00 02 00 00        	movq	512(%rbx), %rcx
10000704a: 48 c1 e1 02                 	shlq	$2, %rcx
10000704e: 48 01 c8                    	addq	%rcx, %rax
100007051: 48 89 83 c0 00 00 00        	movq	%rax, 192(%rbx)
100007058: 48 c1 e8 03                 	shrq	$3, %rax
10000705c: 48 b9 00 00 00 00 00 10 00 00       	movabsq	$17592186044416, %rcx ## imm = 0x100000000000
100007066: 48 09 c8                    	orq	%rcx, %rax
100007069: 8a 00                       	movb	(%rax), %al
10000706b: 88 83 cb 00 00 00           	movb	%al, 203(%rbx)
100007071: 3c 00                       	cmpb	$0, %al
100007073: 0f 84 2b 00 00 00           	je	0x1000070a4 <__Z13read_qubit_opPKc+0xa84>
100007079: 8a 8b cb 00 00 00           	movb	203(%rbx), %cl
10000707f: 48 8b 83 c0 00 00 00        	movq	192(%rbx), %rax
100007086: 48 83 e0 07                 	andq	$7, %rax
10000708a: 48 83 c0 03                 	addq	$3, %rax
10000708e: 38 c8                       	cmpb	%cl, %al
100007090: 0f 8c 0e 00 00 00           	jl	0x1000070a4 <__Z13read_qubit_opPKc+0xa84>
100007096: 48 8b bb c0 00 00 00        	movq	192(%rbx), %rdi
10000709d: e8 00 0b 00 00              	callq	0x100007ba2 <_realloc+0x100007ba2>
1000070a2: 0f 0b                       	ud2
1000070a4: 48 8b 83 c0 00 00 00        	movq	192(%rbx), %rax
1000070ab: 8b 00                       	movl	(%rax), %eax
1000070ad: 89 83 ac 00 00 00           	movl	%eax, 172(%rbx)
1000070b3: 48 8b 83 08 02 00 00        	movq	520(%rbx), %rax
1000070ba: 48 63 8b fc 01 00 00        	movslq	508(%rbx), %rcx
1000070c1: 48 c1 e1 02                 	shlq	$2, %rcx
1000070c5: 48 01 c8                    	addq	%rcx, %rax
1000070c8: 48 89 83 b0 00 00 00        	movq	%rax, 176(%rbx)
1000070cf: 48 c1 e8 03                 	shrq	$3, %rax
1000070d3: 48 b9 00 00 00 00 00 10 00 00       	movabsq	$17592186044416, %rcx ## imm = 0x100000000000
1000070dd: 48 09 c8                    	orq	%rcx, %rax
1000070e0: 8a 00                       	movb	(%rax), %al
1000070e2: 88 83 bf 00 00 00           	movb	%al, 191(%rbx)
1000070e8: 3c 00                       	cmpb	$0, %al
1000070ea: 0f 84 2b 00 00 00           	je	0x10000711b <__Z13read_qubit_opPKc+0xafb>
1000070f0: 8a 8b bf 00 00 00           	movb	191(%rbx), %cl
1000070f6: 48 8b 83 b0 00 00 00        	movq	176(%rbx), %rax
1000070fd: 48 83 e0 07                 	andq	$7, %rax
100007101: 48 83 c0 03                 	addq	$3, %rax
100007105: 38 c8                       	cmpb	%cl, %al
100007107: 0f 8c 0e 00 00 00           	jl	0x10000711b <__Z13read_qubit_opPKc+0xafb>
10000710d: 48 8b bb b0 00 00 00        	movq	176(%rbx), %rdi
100007114: e8 9b 0a 00 00              	callq	0x100007bb4 <_realloc+0x100007bb4>
100007119: 0f 0b                       	ud2
10000711b: 48 8b 83 b0 00 00 00        	movq	176(%rbx), %rax
100007122: 8b 8b ac 00 00 00           	movl	172(%rbx), %ecx
100007128: 89 08                       	movl	%ecx, (%rax)
10000712a: e9 00 00 00 00              	jmp	0x10000712f <__Z13read_qubit_opPKc+0xb0f>
10000712f: 48 8b 83 00 02 00 00        	movq	512(%rbx), %rax
100007136: 48 83 c0 01                 	addq	$1, %rax
10000713a: 48 89 83 00 02 00 00        	movq	%rax, 512(%rbx)
100007141: e9 17 fd ff ff              	jmp	0x100006e5d <__Z13read_qubit_opPKc+0x83d>
100007146: 48 63 bb 1c 02 00 00        	movslq	540(%rbx), %rdi
10000714d: 48 c1 e7 03                 	shlq	$3, %rdi
100007151: e8 be 0a 00 00              	callq	0x100007c14 <_realloc+0x100007c14>
100007156: 48 89 83 f0 01 00 00        	movq	%rax, 496(%rbx)
10000715d: c7 83 ec 01 00 00 00 00 00 00       	movl	$0, 492(%rbx)
100007167: 8b 83 ec 01 00 00           	movl	492(%rbx), %eax
10000716d: 3b 83 1c 02 00 00           	cmpl	540(%rbx), %eax
100007173: 0f 8c 0f 00 00 00           	jl	0x100007188 <__Z13read_qubit_opPKc+0xb68>
100007179: c7 83 44 02 00 00 07 00 00 00       	movl	$7, 580(%rbx)
100007183: e9 7f 00 00 00              	jmp	0x100007207 <__Z13read_qubit_opPKc+0xbe7>
100007188: bf 02 00 00 00              	movl	$2, %edi
10000718d: be 04 00 00 00              	movl	$4, %esi
100007192: e8 53 0a 00 00              	callq	0x100007bea <_realloc+0x100007bea>
100007197: 48 89 83 98 00 00 00        	movq	%rax, 152(%rbx)
10000719e: 48 8b 83 f0 01 00 00        	movq	496(%rbx), %rax
1000071a5: 48 63 8b ec 01 00 00        	movslq	492(%rbx), %rcx
1000071ac: 48 c1 e1 03                 	shlq	$3, %rcx
1000071b0: 48 01 c8                    	addq	%rcx, %rax
1000071b3: 48 89 83 a0 00 00 00        	movq	%rax, 160(%rbx)
1000071ba: 48 c1 e8 03                 	shrq	$3, %rax
1000071be: 48 b9 00 00 00 00 00 10 00 00       	movabsq	$17592186044416, %rcx ## imm = 0x100000000000
1000071c8: 48 09 c8                    	orq	%rcx, %rax
1000071cb: 80 38 00                    	cmpb	$0, (%rax)
1000071ce: 0f 84 0e 00 00 00           	je	0x1000071e2 <__Z13read_qubit_opPKc+0xbc2>
1000071d4: 48 8b bb a0 00 00 00        	movq	160(%rbx), %rdi
1000071db: e8 da 09 00 00              	callq	0x100007bba <_realloc+0x100007bba>
1000071e0: 0f 0b                       	ud2
1000071e2: 48 8b 83 a0 00 00 00        	movq	160(%rbx), %rax
1000071e9: 48 8b 8b 98 00 00 00        	movq	152(%rbx), %rcx
1000071f0: 48 89 08                    	movq	%rcx, (%rax)
1000071f3: 8b 83 ec 01 00 00           	movl	492(%rbx), %eax
1000071f9: 83 c0 01                    	addl	$1, %eax
1000071fc: 89 83 ec 01 00 00           	movl	%eax, 492(%rbx)
100007202: e9 60 ff ff ff              	jmp	0x100007167 <__Z13read_qubit_opPKc+0xb47>
100007207: 48 c7 83 e0 01 00 00 00 00 00 00    	movq	$0, 480(%rbx)
100007212: 48 8b 83 e0 01 00 00        	movq	480(%rbx), %rax
100007219: 48 63 8b 1c 02 00 00        	movslq	540(%rbx), %rcx
100007220: 48 39 c8                    	cmpq	%rcx, %rax
100007223: 0f 82 0f 00 00 00           	jb	0x100007238 <__Z13read_qubit_opPKc+0xc18>
100007229: c7 83 44 02 00 00 0a 00 00 00       	movl	$10, 580(%rbx)
100007233: e9 1e 02 00 00              	jmp	0x100007456 <__Z13read_qubit_opPKc+0xe36>
100007238: 48 8b 83 10 02 00 00        	movq	528(%rbx), %rax
10000723f: 48 8b 8b e0 01 00 00        	movq	480(%rbx), %rcx
100007246: 48 c1 e1 02                 	shlq	$2, %rcx
10000724a: 48 01 c8                    	addq	%rcx, %rax
10000724d: 48 89 83 88 00 00 00        	movq	%rax, 136(%rbx)
100007254: 48 c1 e8 03                 	shrq	$3, %rax
100007258: 48 b9 00 00 00 00 00 10 00 00       	movabsq	$17592186044416, %rcx ## imm = 0x100000000000
100007262: 48 09 c8                    	orq	%rcx, %rax
100007265: 8a 00                       	movb	(%rax), %al
100007267: 88 83 97 00 00 00           	movb	%al, 151(%rbx)
10000726d: 3c 00                       	cmpb	$0, %al
10000726f: 0f 84 2b 00 00 00           	je	0x1000072a0 <__Z13read_qubit_opPKc+0xc80>
100007275: 8a 8b 97 00 00 00           	movb	151(%rbx), %cl
10000727b: 48 8b 83 88 00 00 00        	movq	136(%rbx), %rax
100007282: 48 83 e0 07                 	andq	$7, %rax
100007286: 48 83 c0 03                 	addq	$3, %rax
10000728a: 38 c8                       	cmpb	%cl, %al
10000728c: 0f 8c 0e 00 00 00           	jl	0x1000072a0 <__Z13read_qubit_opPKc+0xc80>
100007292: 48 8b bb 88 00 00 00        	movq	136(%rbx), %rdi
100007299: e8 04 09 00 00              	callq	0x100007ba2 <_realloc+0x100007ba2>
10000729e: 0f 0b                       	ud2
1000072a0: 48 8b 83 88 00 00 00        	movq	136(%rbx), %rax
1000072a7: 8b 00                       	movl	(%rax), %eax
1000072a9: 89 43 7c                    	movl	%eax, 124(%rbx)
1000072ac: 48 8b 83 f0 01 00 00        	movq	496(%rbx), %rax
1000072b3: 48 8b 8b e0 01 00 00        	movq	480(%rbx), %rcx
1000072ba: 48 c1 e1 03                 	shlq	$3, %rcx
1000072be: 48 01 c8                    	addq	%rcx, %rax
1000072c1: 48 89 83 80 00 00 00        	movq	%rax, 128(%rbx)
1000072c8: 48 c1 e8 03                 	shrq	$3, %rax
1000072cc: 48 b9 00 00 00 00 00 10 00 00       	movabsq	$17592186044416, %rcx ## imm = 0x100000000000
1000072d6: 48 09 c8                    	orq	%rcx, %rax
1000072d9: 80 38 00                    	cmpb	$0, (%rax)
1000072dc: 0f 84 0e 00 00 00           	je	0x1000072f0 <__Z13read_qubit_opPKc+0xcd0>
1000072e2: 48 8b bb 80 00 00 00        	movq	128(%rbx), %rdi
1000072e9: e8 ba 08 00 00              	callq	0x100007ba8 <_realloc+0x100007ba8>
1000072ee: 0f 0b                       	ud2
1000072f0: 48 8b 83 80 00 00 00        	movq	128(%rbx), %rax
1000072f7: 48 8b 00                    	movq	(%rax), %rax
1000072fa: 48 89 43 70                 	movq	%rax, 112(%rbx)
1000072fe: 48 c1 e8 03                 	shrq	$3, %rax
100007302: 48 b9 00 00 00 00 00 10 00 00       	movabsq	$17592186044416, %rcx ## imm = 0x100000000000
10000730c: 48 09 c8                    	orq	%rcx, %rax
10000730f: 8a 00                       	movb	(%rax), %al
100007311: 88 43 7b                    	movb	%al, 123(%rbx)
100007314: 3c 00                       	cmpb	$0, %al
100007316: 0f 84 22 00 00 00           	je	0x10000733e <__Z13read_qubit_opPKc+0xd1e>
10000731c: 8a 4b 7b                    	movb	123(%rbx), %cl
10000731f: 48 8b 43 70                 	movq	112(%rbx), %rax
100007323: 48 83 e0 07                 	andq	$7, %rax
100007327: 48 83 c0 03                 	addq	$3, %rax
10000732b: 38 c8                       	cmpb	%cl, %al
10000732d: 0f 8c 0b 00 00 00           	jl	0x10000733e <__Z13read_qubit_opPKc+0xd1e>
100007333: 48 8b 7b 70                 	movq	112(%rbx), %rdi
100007337: e8 78 08 00 00              	callq	0x100007bb4 <_realloc+0x100007bb4>
10000733c: 0f 0b                       	ud2
10000733e: 48 8b 43 70                 	movq	112(%rbx), %rax
100007342: 8b 4b 7c                    	movl	124(%rbx), %ecx
100007345: 89 08                       	movl	%ecx, (%rax)
100007347: 48 8b 83 08 02 00 00        	movq	520(%rbx), %rax
10000734e: 48 8b 8b e0 01 00 00        	movq	480(%rbx), %rcx
100007355: 48 c1 e1 02                 	shlq	$2, %rcx
100007359: 48 01 c8                    	addq	%rcx, %rax
10000735c: 48 89 43 60                 	movq	%rax, 96(%rbx)
100007360: 48 c1 e8 03                 	shrq	$3, %rax
100007364: 48 b9 00 00 00 00 00 10 00 00       	movabsq	$17592186044416, %rcx ## imm = 0x100000000000
10000736e: 48 09 c8                    	orq	%rcx, %rax
100007371: 8a 00                       	movb	(%rax), %al
100007373: 88 43 6f                    	movb	%al, 111(%rbx)
100007376: 3c 00                       	cmpb	$0, %al
100007378: 0f 84 22 00 00 00           	je	0x1000073a0 <__Z13read_qubit_opPKc+0xd80>
10000737e: 8a 4b 6f                    	movb	111(%rbx), %cl
100007381: 48 8b 43 60                 	movq	96(%rbx), %rax
100007385: 48 83 e0 07                 	andq	$7, %rax
100007389: 48 83 c0 03                 	addq	$3, %rax
10000738d: 38 c8                       	cmpb	%cl, %al
10000738f: 0f 8c 0b 00 00 00           	jl	0x1000073a0 <__Z13read_qubit_opPKc+0xd80>
100007395: 48 8b 7b 60                 	movq	96(%rbx), %rdi
100007399: e8 04 08 00 00              	callq	0x100007ba2 <_realloc+0x100007ba2>
10000739e: 0f 0b                       	ud2
1000073a0: 48 8b 43 60                 	movq	96(%rbx), %rax
1000073a4: 8b 00                       	movl	(%rax), %eax
1000073a6: 89 43 54                    	movl	%eax, 84(%rbx)
1000073a9: 48 8b 83 f0 01 00 00        	movq	496(%rbx), %rax
1000073b0: 48 8b 8b e0 01 00 00        	movq	480(%rbx), %rcx
1000073b7: 48 c1 e1 03                 	shlq	$3, %rcx
1000073bb: 48 01 c8                    	addq	%rcx, %rax
1000073be: 48 89 43 58                 	movq	%rax, 88(%rbx)
1000073c2: 48 c1 e8 03                 	shrq	$3, %rax
1000073c6: 48 b9 00 00 00 00 00 10 00 00       	movabsq	$17592186044416, %rcx ## imm = 0x100000000000
1000073d0: 48 09 c8                    	orq	%rcx, %rax
1000073d3: 80 38 00                    	cmpb	$0, (%rax)
1000073d6: 0f 84 0b 00 00 00           	je	0x1000073e7 <__Z13read_qubit_opPKc+0xdc7>
1000073dc: 48 8b 7b 58                 	movq	88(%rbx), %rdi
1000073e0: e8 c3 07 00 00              	callq	0x100007ba8 <_realloc+0x100007ba8>
1000073e5: 0f 0b                       	ud2
1000073e7: 48 8b 43 58                 	movq	88(%rbx), %rax
1000073eb: 48 8b 00                    	movq	(%rax), %rax
1000073ee: 48 83 c0 04                 	addq	$4, %rax
1000073f2: 48 89 43 48                 	movq	%rax, 72(%rbx)
1000073f6: 48 c1 e8 03                 	shrq	$3, %rax
1000073fa: 48 b9 00 00 00 00 00 10 00 00       	movabsq	$17592186044416, %rcx ## imm = 0x100000000000
100007404: 48 09 c8                    	orq	%rcx, %rax
100007407: 8a 00                       	movb	(%rax), %al
100007409: 88 43 53                    	movb	%al, 83(%rbx)
10000740c: 3c 00                       	cmpb	$0, %al
10000740e: 0f 84 22 00 00 00           	je	0x100007436 <__Z13read_qubit_opPKc+0xe16>
100007414: 8a 4b 53                    	movb	83(%rbx), %cl
100007417: 48 8b 43 48                 	movq	72(%rbx), %rax
10000741b: 48 83 e0 07                 	andq	$7, %rax
10000741f: 48 83 c0 03                 	addq	$3, %rax
100007423: 38 c8                       	cmpb	%cl, %al
100007425: 0f 8c 0b 00 00 00           	jl	0x100007436 <__Z13read_qubit_opPKc+0xe16>
10000742b: 48 8b 7b 48                 	movq	72(%rbx), %rdi
10000742f: e8 80 07 00 00              	callq	0x100007bb4 <_realloc+0x100007bb4>
100007434: 0f 0b                       	ud2
100007436: 48 8b 43 48                 	movq	72(%rbx), %rax
10000743a: 8b 4b 54                    	movl	84(%rbx), %ecx
10000743d: 89 08                       	movl	%ecx, (%rax)
10000743f: 48 8b 83 e0 01 00 00        	movq	480(%rbx), %rax
100007446: 48 83 c0 01                 	addq	$1, %rax
10000744a: 48 89 83 e0 01 00 00        	movq	%rax, 480(%rbx)
100007451: e9 bc fd ff ff              	jmp	0x100007212 <__Z13read_qubit_opPKc+0xbf2>
100007456: 48 8b 83 88 01 00 00        	movq	392(%rbx), %rax
10000745d: 8b 8b 1c 02 00 00           	movl	540(%rbx), %ecx
100007463: 89 4b 34                    	movl	%ecx, 52(%rbx)
100007466: 48 83 c0 18                 	addq	$24, %rax
10000746a: 48 89 43 38                 	movq	%rax, 56(%rbx)
10000746e: 48 c1 e8 03                 	shrq	$3, %rax
100007472: 48 b9 00 00 00 00 00 10 00 00       	movabsq	$17592186044416, %rcx ## imm = 0x100000000000
10000747c: 48 09 c8                    	orq	%rcx, %rax
10000747f: 8a 00                       	movb	(%rax), %al
100007481: 88 43 47                    	movb	%al, 71(%rbx)
100007484: 3c 00                       	cmpb	$0, %al
100007486: 0f 84 22 00 00 00           	je	0x1000074ae <__Z13read_qubit_opPKc+0xe8e>
10000748c: 8a 4b 47                    	movb	71(%rbx), %cl
10000748f: 48 8b 43 38                 	movq	56(%rbx), %rax
100007493: 48 83 e0 07                 	andq	$7, %rax
100007497: 48 83 c0 03                 	addq	$3, %rax
10000749b: 38 c8                       	cmpb	%cl, %al
10000749d: 0f 8c 0b 00 00 00           	jl	0x1000074ae <__Z13read_qubit_opPKc+0xe8e>
1000074a3: 48 8b 7b 38                 	movq	56(%rbx), %rdi
1000074a7: e8 08 07 00 00              	callq	0x100007bb4 <_realloc+0x100007bb4>
1000074ac: 0f 0b                       	ud2
1000074ae: 48 8b 83 88 01 00 00        	movq	392(%rbx), %rax
1000074b5: 48 8b 4b 38                 	movq	56(%rbx), %rcx
1000074b9: 8b 53 34                    	movl	52(%rbx), %edx
1000074bc: 89 11                       	movl	%edx, (%rcx)
1000074be: 48 8b 8b f0 01 00 00        	movq	496(%rbx), %rcx
1000074c5: 48 89 4b 28                 	movq	%rcx, 40(%rbx)
1000074c9: 48 c1 e8 03                 	shrq	$3, %rax
1000074cd: 48 b9 00 00 00 00 00 10 00 00       	movabsq	$17592186044416, %rcx ## imm = 0x100000000000
1000074d7: 48 09 c8                    	orq	%rcx, %rax
1000074da: 80 38 00                    	cmpb	$0, (%rax)
1000074dd: 0f 84 0e 00 00 00           	je	0x1000074f1 <__Z13read_qubit_opPKc+0xed1>
1000074e3: 48 8b bb 88 01 00 00        	movq	392(%rbx), %rdi
1000074ea: e8 cb 06 00 00              	callq	0x100007bba <_realloc+0x100007bba>
1000074ef: 0f 0b                       	ud2
1000074f1: 48 8b 83 88 01 00 00        	movq	392(%rbx), %rax
1000074f8: 48 8b 4b 28                 	movq	40(%rbx), %rcx
1000074fc: 48 89 08                    	movq	%rcx, (%rax)
1000074ff: 8b 83 34 02 00 00           	movl	564(%rbx), %eax
100007505: 83 c0 01                    	addl	$1, %eax
100007508: 89 83 34 02 00 00           	movl	%eax, 564(%rbx)
10000750e: 48 8b bb 38 02 00 00        	movq	568(%rbx), %rdi
100007515: 48 63 b3 34 02 00 00        	movslq	564(%rbx), %rsi
10000751c: 48 c1 e6 05                 	shlq	$5, %rsi
100007520: e8 01 07 00 00              	callq	0x100007c26 <_realloc+0x100007c26>
100007525: 48 8b b3 88 01 00 00        	movq	392(%rbx), %rsi
10000752c: 48 89 83 38 02 00 00        	movq	%rax, 568(%rbx)
100007533: 48 8b bb 38 02 00 00        	movq	568(%rbx), %rdi
10000753a: 8b 83 34 02 00 00           	movl	564(%rbx), %eax
100007540: 83 e8 01                    	subl	$1, %eax
100007543: 48 98                       	cltq
100007545: 48 c1 e0 05                 	shlq	$5, %rax
100007549: 48 01 c7                    	addq	%rax, %rdi
10000754c: ba 20 00 00 00              	movl	$32, %edx
100007551: e8 34 06 00 00              	callq	0x100007b8a <_realloc+0x100007b8a>
100007556: 8b 83 34 02 00 00           	movl	564(%rbx), %eax
10000755c: 89 05 fe 4e 00 00           	movl	%eax, 20222(%rip)       ## 0x10000c460 <_global_n_qubit_op>
100007562: 48 8b b3 28 02 00 00        	movq	552(%rbx), %rsi
100007569: 48 89 73 20                 	movq	%rsi, 32(%rbx)
10000756d: 31 c0                       	xorl	%eax, %eax
10000756f: 48 01 c6                    	addq	%rax, %rsi
100007572: 48 8b bb 60 02 00 00        	movq	608(%rbx), %rdi
100007579: e8 fa 05 00 00              	callq	0x100007b78 <_realloc+0x100007b78>
10000757e: 48 8b 43 20                 	movq	32(%rbx), %rax
100007582: 48 89 c4                    	movq	%rax, %rsp
100007585: c7 83 44 02 00 00 00 00 00 00       	movl	$0, 580(%rbx)
10000758f: 48 8b 83 a0 01 00 00        	movq	416(%rbx), %rax
100007596: c7 40 1a f8 f8 f8 f8        	movl	$4177066232, 26(%rax)   ## imm = 0xF8F8F8F8
10000759d: 8b 83 44 02 00 00           	movl	580(%rbx), %eax
1000075a3: 85 c0                       	testl	%eax, %eax
1000075a5: 0f 84 0a 00 00 00           	je	0x1000075b5 <__Z13read_qubit_opPKc+0xf95>
1000075ab: e9 00 00 00 00              	jmp	0x1000075b0 <__Z13read_qubit_opPKc+0xf90>
1000075b0: e9 05 00 00 00              	jmp	0x1000075ba <__Z13read_qubit_opPKc+0xf9a>
1000075b5: e9 fc f5 ff ff              	jmp	0x100006bb6 <__Z13read_qubit_opPKc+0x596>
1000075ba: 48 8b bb 48 02 00 00        	movq	584(%rbx), %rdi
1000075c1: e8 2a 06 00 00              	callq	0x100007bf0 <_realloc+0x100007bf0>
1000075c6: 48 8b 83 a0 01 00 00        	movq	416(%rbx), %rax
1000075cd: 48 8b 8b 38 02 00 00        	movq	568(%rbx), %rcx
1000075d4: 48 89 8b 58 02 00 00        	movq	%rcx, 600(%rbx)
1000075db: c7 83 44 02 00 00 01 00 00 00       	movl	$1, 580(%rbx)
1000075e5: c6 40 14 f8                 	movb	$-8, 20(%rax)
1000075e9: 48 8b 83 a0 01 00 00        	movq	416(%rbx), %rax
1000075f0: c6 40 0c f8                 	movb	$-8, 12(%rax)
1000075f4: 48 8b 83 58 02 00 00        	movq	600(%rbx), %rax
1000075fb: 48 89 43 18                 	movq	%rax, 24(%rbx)
1000075ff: 48 8d b3 60 02 00 00        	leaq	608(%rbx), %rsi
100007606: 48 8b bb 60 02 00 00        	movq	608(%rbx), %rdi
10000760d: e8 66 05 00 00              	callq	0x100007b78 <_realloc+0x100007b78>
100007612: 48 8b 8b 58 01 00 00        	movq	344(%rbx), %rcx
100007619: 48 8b 83 c0 01 00 00        	movq	448(%rbx), %rax
100007620: 48 c7 01 0e 36 e0 45        	movq	$1172321806, (%rcx)     ## imm = 0x45E0360E
100007627: 48 83 f8 00                 	cmpq	$0, %rax
10000762b: 0f 84 2b 00 00 00           	je	0x10000765c <__Z13read_qubit_opPKc+0x103c>
100007631: 48 8b bb a0 01 00 00        	movq	416(%rbx), %rdi
100007638: 48 83 c7 00                 	addq	$0, %rdi
10000763c: be 40 00 00 00              	movl	$64, %esi
100007641: e8 7a 05 00 00              	callq	0x100007bc0 <_realloc+0x100007bc0>
100007646: 48 8b 83 c0 01 00 00        	movq	448(%rbx), %rax
10000764d: 48 8b 80 f8 01 00 00        	movq	504(%rax), %rax
100007654: c6 00 00                    	movb	$0, (%rax)
100007657: e9 35 00 00 00              	jmp	0x100007691 <__Z13read_qubit_opPKc+0x1071>
10000765c: 48 8b 83 a0 01 00 00        	movq	416(%rbx), %rax
100007663: 48 c7 00 00 00 00 00        	movq	$0, (%rax)
10000766a: 48 c7 40 08 00 00 00 00     	movq	$0, 8(%rax)
100007672: 48 c7 40 10 00 00 00 00     	movq	$0, 16(%rax)
10000767a: 48 c7 40 18 00 00 00 00     	movq	$0, 24(%rax)
100007682: 48 c7 40 20 00 00 00 00     	movq	$0, 32(%rax)
10000768a: c7 40 28 00 00 00 00        	movl	$0, 40(%rax)
100007691: 48 8b 05 18 0a 00 00        	movq	2584(%rip), %rax        ## 0x1000080b0 <_realloc+0x1000080b0>
100007698: 48 8b 00                    	movq	(%rax), %rax
10000769b: 48 8b 8b 80 02 00 00        	movq	640(%rbx), %rcx
1000076a2: 48 39 c8                    	cmpq	%rcx, %rax
1000076a5: 0f 85 0d 00 00 00           	jne	0x1000076b8 <__Z13read_qubit_opPKc+0x1098>
1000076ab: 48 8b 43 18                 	movq	24(%rbx), %rax
1000076af: 48 8d 65 f8                 	leaq	-8(%rbp), %rsp
1000076b3: 5b                          	popq	%rbx
1000076b4: 5d                          	popq	%rbp
1000076b5: c3                          	retq
1000076b6: 0f 0b                       	ud2
1000076b8: e8 27 05 00 00              	callq	0x100007be4 <_realloc+0x100007be4>
1000076bd: 0f 0b                       	ud2
1000076bf: 90                          	nop

00000001000076c0 <__ZNSt3__1L15__get_nullptr_tEv>:
1000076c0: 55                          	pushq	%rbp
1000076c1: 48 89 e5                    	movq	%rsp, %rbp
1000076c4: 53                          	pushq	%rbx
1000076c5: 48 83 e4 e0                 	andq	$-32, %rsp
1000076c9: 48 83 ec 60                 	subq	$96, %rsp
1000076cd: 48 89 e3                    	movq	%rsp, %rbx
1000076d0: 48 8b 05 d9 09 00 00        	movq	2521(%rip), %rax        ## 0x1000080b0 <_realloc+0x1000080b0>
1000076d7: 48 8b 00                    	movq	(%rax), %rax
1000076da: 48 89 43 40                 	movq	%rax, 64(%rbx)
1000076de: 31 c0                       	xorl	%eax, %eax
1000076e0: 48 8b 0d 51 09 00 00        	movq	2385(%rip), %rcx        ## 0x100008038 <_realloc+0x100008038>
1000076e7: 83 39 00                    	cmpl	$0, (%rcx)
1000076ea: 48 89 43 30                 	movq	%rax, 48(%rbx)
1000076ee: 0f 84 0e 00 00 00           	je	0x100007702 <__ZNSt3__1L15__get_nullptr_tEv+0x42>
1000076f4: bf 40 00 00 00              	movl	$64, %edi
1000076f9: e8 c8 04 00 00              	callq	0x100007bc6 <_realloc+0x100007bc6>
1000076fe: 48 89 43 30                 	movq	%rax, 48(%rbx)
100007702: 48 8b 43 30                 	movq	48(%rbx), %rax
100007706: 48 89 43 20                 	movq	%rax, 32(%rbx)
10000770a: 48 83 f8 00                 	cmpq	$0, %rax
10000770e: 48 89 43 28                 	movq	%rax, 40(%rbx)
100007712: 0f 85 12 00 00 00           	jne	0x10000772a <__ZNSt3__1L15__get_nullptr_tEv+0x6a>
100007718: 48 89 e0                    	movq	%rsp, %rax
10000771b: 48 83 c0 c0                 	addq	$-64, %rax
10000771f: 48 83 e0 e0                 	andq	$-32, %rax
100007723: 48 89 c4                    	movq	%rax, %rsp
100007726: 48 89 43 28                 	movq	%rax, 40(%rbx)
10000772a: 48 8b 43 28                 	movq	40(%rbx), %rax
10000772e: 48 89 43 08                 	movq	%rax, 8(%rbx)
100007732: 48 89 43 38                 	movq	%rax, 56(%rbx)
100007736: 48 89 c7                    	movq	%rax, %rdi
100007739: 48 83 c7 20                 	addq	$32, %rdi
10000773d: 48 89 7b 18                 	movq	%rdi, 24(%rbx)
100007741: 48 c7 00 b3 8a b5 41        	movq	$1102416563, (%rax)     ## imm = 0x41B58AB3
100007748: 48 8d 0d d3 07 00 00        	leaq	2003(%rip), %rcx        ## 0x100007f22 <_realloc+0x100007f22>
10000774f: 48 89 48 08                 	movq	%rcx, 8(%rax)
100007753: 48 8d 0d 66 ff ff ff        	leaq	-154(%rip), %rcx        ## 0x1000076c0 <__ZNSt3__1L15__get_nullptr_tEv>
10000775a: 48 89 48 10                 	movq	%rcx, 16(%rax)
10000775e: 48 c1 e8 03                 	shrq	$3, %rax
100007762: 48 b9 00 00 00 00 00 10 00 00       	movabsq	$17592186044416, %rcx ## imm = 0x100000000000
10000776c: 48 09 c8                    	orq	%rcx, %rax
10000776f: 48 89 43 10                 	movq	%rax, 16(%rbx)
100007773: 48 b9 f1 f1 f1 f1 00 f3 f3 f3       	movabsq	$-868083117767659023, %rcx ## imm = 0xF3F3F300F1F1F1F1
10000777d: 48 89 08                    	movq	%rcx, (%rax)
100007780: 48 c7 c6 ff ff ff ff        	movq	$-1, %rsi
100007787: e8 a4 02 00 00              	callq	0x100007a30 <__ZNSt3__19nullptr_tC1EMNS0_5__natEi>
10000778c: 48 8b 43 18                 	movq	24(%rbx), %rax
100007790: 48 c1 e8 03                 	shrq	$3, %rax
100007794: 48 b9 00 00 00 00 00 10 00 00       	movabsq	$17592186044416, %rcx ## imm = 0x100000000000
10000779e: 48 09 c8                    	orq	%rcx, %rax
1000077a1: 80 38 00                    	cmpb	$0, (%rax)
1000077a4: 0f 84 0b 00 00 00           	je	0x1000077b5 <__ZNSt3__1L15__get_nullptr_tEv+0xf5>
1000077aa: 48 8b 7b 18                 	movq	24(%rbx), %rdi
1000077ae: e8 f5 03 00 00              	callq	0x100007ba8 <_realloc+0x100007ba8>
1000077b3: 0f 0b                       	ud2
1000077b5: 48 8b 43 20                 	movq	32(%rbx), %rax
1000077b9: 48 8b 4b 08                 	movq	8(%rbx), %rcx
1000077bd: 48 8b 53 18                 	movq	24(%rbx), %rdx
1000077c1: 48 8b 12                    	movq	(%rdx), %rdx
1000077c4: 48 89 13                    	movq	%rdx, (%rbx)
1000077c7: 48 c7 01 0e 36 e0 45        	movq	$1172321806, (%rcx)     ## imm = 0x45E0360E
1000077ce: 48 83 f8 00                 	cmpq	$0, %rax
1000077d2: 0f 84 21 00 00 00           	je	0x1000077f9 <__ZNSt3__1L15__get_nullptr_tEv+0x139>
1000077d8: 48 8b 43 20                 	movq	32(%rbx), %rax
1000077dc: 48 8b 4b 10                 	movq	16(%rbx), %rcx
1000077e0: 48 ba f5 f5 f5 f5 f5 f5 f5 f5       	movabsq	$-723401728380766731, %rdx ## imm = 0xF5F5F5F5F5F5F5F5
1000077ea: 48 89 11                    	movq	%rdx, (%rcx)
1000077ed: 48 8b 40 38                 	movq	56(%rax), %rax
1000077f1: c6 00 00                    	movb	$0, (%rax)
1000077f4: e9 0b 00 00 00              	jmp	0x100007804 <__ZNSt3__1L15__get_nullptr_tEv+0x144>
1000077f9: 48 8b 43 10                 	movq	16(%rbx), %rax
1000077fd: 48 c7 00 00 00 00 00        	movq	$0, (%rax)
100007804: 48 8b 05 a5 08 00 00        	movq	2213(%rip), %rax        ## 0x1000080b0 <_realloc+0x1000080b0>
10000780b: 48 8b 00                    	movq	(%rax), %rax
10000780e: 48 8b 4b 40                 	movq	64(%rbx), %rcx
100007812: 48 39 c8                    	cmpq	%rcx, %rax
100007815: 0f 85 0a 00 00 00           	jne	0x100007825 <__ZNSt3__1L15__get_nullptr_tEv+0x165>
10000781b: 48 8b 03                    	movq	(%rbx), %rax
10000781e: 48 8d 65 f8                 	leaq	-8(%rbp), %rsp
100007822: 5b                          	popq	%rbx
100007823: 5d                          	popq	%rbp
100007824: c3                          	retq
100007825: e8 ba 03 00 00              	callq	0x100007be4 <_realloc+0x100007be4>
10000782a: 0f 0b                       	ud2
10000782c: 0f 1f 40 00                 	nopl	(%rax)

0000000100007830 <__ZNKSt3__19nullptr_tcvPT_I7__sFILEEEv>:
100007830: 55                          	pushq	%rbp
100007831: 48 89 e5                    	movq	%rsp, %rbp
100007834: 48 89 7d f8                 	movq	%rdi, -8(%rbp)
100007838: 31 c0                       	xorl	%eax, %eax
10000783a: 5d                          	popq	%rbp
10000783b: c3                          	retq
10000783c: 0f 1f 40 00                 	nopl	(%rax)

0000000100007840 <__ZNKSt3__19nullptr_tcvPT_I7tuple_tEEv>:
100007840: 55                          	pushq	%rbp
100007841: 48 89 e5                    	movq	%rsp, %rbp
100007844: 48 89 7d f8                 	movq	%rdi, -8(%rbp)
100007848: 31 c0                       	xorl	%eax, %eax
10000784a: 5d                          	popq	%rbp
10000784b: c3                          	retq
10000784c: 0f 1f 40 00                 	nopl	(%rax)

0000000100007850 <__ZNKSt3__19nullptr_tcvPT_IiEEv>:
100007850: 55                          	pushq	%rbp
100007851: 48 89 e5                    	movq	%rsp, %rbp
100007854: 48 89 7d f8                 	movq	%rdi, -8(%rbp)
100007858: 31 c0                       	xorl	%eax, %eax
10000785a: 5d                          	popq	%rbp
10000785b: c3                          	retq
10000785c: 0f 1f 40 00                 	nopl	(%rax)

0000000100007860 <_main>:
100007860: 55                          	pushq	%rbp
100007861: 48 89 e5                    	movq	%rsp, %rbp
100007864: 53                          	pushq	%rbx
100007865: 48 83 e4 e0                 	andq	$-32, %rsp
100007869: 48 81 ec c0 00 00 00        	subq	$192, %rsp
100007870: 48 89 e3                    	movq	%rsp, %rbx
100007873: 48 8b 05 36 08 00 00        	movq	2102(%rip), %rax        ## 0x1000080b0 <_realloc+0x1000080b0>
10000787a: 48 8b 00                    	movq	(%rax), %rax
10000787d: 48 89 83 a0 00 00 00        	movq	%rax, 160(%rbx)
100007884: 31 c0                       	xorl	%eax, %eax
100007886: 48 8b 0d ab 07 00 00        	movq	1963(%rip), %rcx        ## 0x100008038 <_realloc+0x100008038>
10000788d: 83 39 00                    	cmpl	$0, (%rcx)
100007890: 48 89 43 30                 	movq	%rax, 48(%rbx)
100007894: 0f 84 0e 00 00 00           	je	0x1000078a8 <_main+0x48>
10000789a: bf 60 00 00 00              	movl	$96, %edi
10000789f: e8 28 03 00 00              	callq	0x100007bcc <_realloc+0x100007bcc>
1000078a4: 48 89 43 30                 	movq	%rax, 48(%rbx)
1000078a8: 48 8b 43 30                 	movq	48(%rbx), %rax
1000078ac: 48 89 43 20                 	movq	%rax, 32(%rbx)
1000078b0: 48 83 f8 00                 	cmpq	$0, %rax
1000078b4: 48 89 43 28                 	movq	%rax, 40(%rbx)
1000078b8: 0f 85 12 00 00 00           	jne	0x1000078d0 <_main+0x70>
1000078be: 48 89 e0                    	movq	%rsp, %rax
1000078c1: 48 83 c0 a0                 	addq	$-96, %rax
1000078c5: 48 83 e0 e0                 	andq	$-32, %rax
1000078c9: 48 89 c4                    	movq	%rax, %rsp
1000078cc: 48 89 43 28                 	movq	%rax, 40(%rbx)
1000078d0: 48 8b 43 28                 	movq	40(%rbx), %rax
1000078d4: 48 89 43 18                 	movq	%rax, 24(%rbx)
1000078d8: 48 89 43 38                 	movq	%rax, 56(%rbx)
1000078dc: 48 89 c1                    	movq	%rax, %rcx
1000078df: 48 83 c1 20                 	addq	$32, %rcx
1000078e3: 48 89 4b 08                 	movq	%rcx, 8(%rbx)
1000078e7: 48 c7 00 b3 8a b5 41        	movq	$1102416563, (%rax)     ## imm = 0x41B58AB3
1000078ee: 48 8d 0d 3d 06 00 00        	leaq	1597(%rip), %rcx        ## 0x100007f32 <_realloc+0x100007f32>
1000078f5: 48 89 48 08                 	movq	%rcx, 8(%rax)
1000078f9: 48 8d 0d 60 ff ff ff        	leaq	-160(%rip), %rcx        ## 0x100007860 <_main>
100007900: 48 89 48 10                 	movq	%rcx, 16(%rax)
100007904: 48 c1 e8 03                 	shrq	$3, %rax
100007908: 48 b9 00 00 00 00 00 10 00 00       	movabsq	$17592186044416, %rcx ## imm = 0x100000000000
100007912: 48 09 c8                    	orq	%rcx, %rax
100007915: 48 89 43 10                 	movq	%rax, 16(%rbx)
100007919: 48 b9 f1 f1 f1 f1 f8 f8 f8 f8       	movabsq	$-506381209984437775, %rcx ## imm = 0xF8F8F8F8F1F1F1F1
100007923: 48 89 08                    	movq	%rcx, (%rax)
100007926: c7 40 08 f3 f3 f3 f3        	movl	$4092851187, 8(%rax)    ## imm = 0xF3F3F3F3
10000792d: c7 83 9c 00 00 00 00 00 00 00       	movl	$0, 156(%rbx)
100007937: 48 c7 83 90 00 00 00 00 00 00 00    	movq	$0, 144(%rbx)
100007942: 48 8d 3d b7 04 00 00        	leaq	1207(%rip), %rdi        ## 0x100007e00 <_.str.8>
100007949: e8 d2 ec ff ff              	callq	0x100006620 <__Z13read_qubit_opPKc>
10000794e: 48 8b 7b 08                 	movq	8(%rbx), %rdi
100007952: 48 89 c1                    	movq	%rax, %rcx
100007955: 48 8b 43 10                 	movq	16(%rbx), %rax
100007959: 48 89 8b 90 00 00 00        	movq	%rcx, 144(%rbx)
100007960: c7 40 04 00 00 00 00        	movl	$0, 4(%rax)
100007967: 48 8d 35 f2 02 00 00        	leaq	754(%rip), %rsi         ## 0x100007c60 <___const.main._state>
10000796e: ba 20 00 00 00              	movl	$32, %edx
100007973: e8 12 02 00 00              	callq	0x100007b8a <_realloc+0x100007b8a>
100007978: 48 8b 7b 08                 	movq	8(%rbx), %rdi
10000797c: c7 43 54 04 00 00 00        	movl	$4, 84(%rbx)
100007983: 8b 73 54                    	movl	84(%rbx), %esi
100007986: 48 8b 53 48                 	movq	72(%rbx), %rdx
10000798a: 48 8b 4b 40                 	movq	64(%rbx), %rcx
10000798e: f2 0f 10 05 c2 02 00 00     	movsd	706(%rip), %xmm0        ## xmm0 = mem[0],zero
                                                                        ## 0x100007c58 <_realloc+0x100007c58>
100007996: e8 f5 cf ff ff              	callq	0x100004990 <_coupled_states>
10000799b: 48 8b 53 10                 	movq	16(%rbx), %rdx
10000799f: 48 8b 4b 18                 	movq	24(%rbx), %rcx
1000079a3: 48 8b 43 20                 	movq	32(%rbx), %rax
1000079a7: c7 42 04 f8 f8 f8 f8        	movl	$4177066232, 4(%rdx)    ## imm = 0xF8F8F8F8
1000079ae: 48 c7 01 0e 36 e0 45        	movq	$1172321806, (%rcx)     ## imm = 0x45E0360E
1000079b5: 48 83 f8 00                 	cmpq	$0, %rax
1000079b9: 0f 84 2f 00 00 00           	je	0x1000079ee <_main+0x18e>
1000079bf: 48 8b 43 20                 	movq	32(%rbx), %rax
1000079c3: 48 8b 4b 10                 	movq	16(%rbx), %rcx
1000079c7: 48 ba f5 f5 f5 f5 f5 f5 f5 f5       	movabsq	$-723401728380766731, %rdx ## imm = 0xF5F5F5F5F5F5F5F5
1000079d1: 48 89 11                    	movq	%rdx, (%rcx)
1000079d4: 48 ba f5 f5 f5 f5 f5 f5 f5 f5       	movabsq	$-723401728380766731, %rdx ## imm = 0xF5F5F5F5F5F5F5F5
1000079de: 48 89 51 08                 	movq	%rdx, 8(%rcx)
1000079e2: 48 8b 40 78                 	movq	120(%rax), %rax
1000079e6: c6 00 00                    	movb	$0, (%rax)
1000079e9: e9 12 00 00 00              	jmp	0x100007a00 <_main+0x1a0>
1000079ee: 48 8b 43 10                 	movq	16(%rbx), %rax
1000079f2: 48 c7 00 00 00 00 00        	movq	$0, (%rax)
1000079f9: c7 40 08 00 00 00 00        	movl	$0, 8(%rax)
100007a00: 48 8b 05 a9 06 00 00        	movq	1705(%rip), %rax        ## 0x1000080b0 <_realloc+0x1000080b0>
100007a07: 48 8b 00                    	movq	(%rax), %rax
100007a0a: 48 8b 8b a0 00 00 00        	movq	160(%rbx), %rcx
100007a11: 48 39 c8                    	cmpq	%rcx, %rax
100007a14: 0f 85 09 00 00 00           	jne	0x100007a23 <_main+0x1c3>
100007a1a: 31 c0                       	xorl	%eax, %eax
100007a1c: 48 8d 65 f8                 	leaq	-8(%rbp), %rsp
100007a20: 5b                          	popq	%rbx
100007a21: 5d                          	popq	%rbp
100007a22: c3                          	retq
100007a23: e8 bc 01 00 00              	callq	0x100007be4 <_realloc+0x100007be4>
100007a28: 0f 0b                       	ud2
100007a2a: 66 0f 1f 44 00 00           	nopw	(%rax,%rax)

0000000100007a30 <__ZNSt3__19nullptr_tC1EMNS0_5__natEi>:
100007a30: 55                          	pushq	%rbp
100007a31: 48 89 e5                    	movq	%rsp, %rbp
100007a34: 48 83 ec 10                 	subq	$16, %rsp
100007a38: 48 89 7d f8                 	movq	%rdi, -8(%rbp)
100007a3c: 48 89 75 f0                 	movq	%rsi, -16(%rbp)
100007a40: 48 8b 7d f8                 	movq	-8(%rbp), %rdi
100007a44: 48 8b 75 f0                 	movq	-16(%rbp), %rsi
100007a48: e8 13 00 00 00              	callq	0x100007a60 <__ZNSt3__19nullptr_tC2EMNS0_5__natEi>
100007a4d: 48 83 c4 10                 	addq	$16, %rsp
100007a51: 5d                          	popq	%rbp
100007a52: c3                          	retq
100007a53: 66 2e 0f 1f 84 00 00 00 00 00       	nopw	%cs:(%rax,%rax)
100007a5d: 0f 1f 00                    	nopl	(%rax)

0000000100007a60 <__ZNSt3__19nullptr_tC2EMNS0_5__natEi>:
100007a60: 55                          	pushq	%rbp
100007a61: 48 89 e5                    	movq	%rsp, %rbp
100007a64: 48 83 ec 20                 	subq	$32, %rsp
100007a68: 48 89 7d f8                 	movq	%rdi, -8(%rbp)
100007a6c: 48 89 75 f0                 	movq	%rsi, -16(%rbp)
100007a70: 48 8b 45 f8                 	movq	-8(%rbp), %rax
100007a74: 48 89 45 e8                 	movq	%rax, -24(%rbp)
100007a78: 48 c1 e8 03                 	shrq	$3, %rax
100007a7c: 48 b9 00 00 00 00 00 10 00 00       	movabsq	$17592186044416, %rcx ## imm = 0x100000000000
100007a86: 48 09 c8                    	orq	%rcx, %rax
100007a89: 80 38 00                    	cmpb	$0, (%rax)
100007a8c: 0f 84 0b 00 00 00           	je	0x100007a9d <__ZNSt3__19nullptr_tC2EMNS0_5__natEi+0x3d>
100007a92: 48 8b 7d e8                 	movq	-24(%rbp), %rdi
100007a96: e8 1f 01 00 00              	callq	0x100007bba <_realloc+0x100007bba>
100007a9b: 0f 0b                       	ud2
100007a9d: 48 8b 45 e8                 	movq	-24(%rbp), %rax
100007aa1: 48 c7 00 00 00 00 00        	movq	$0, (%rax)
100007aa8: 48 83 c4 20                 	addq	$32, %rsp
100007aac: 5d                          	popq	%rbp
100007aad: c3                          	retq
100007aae: 66 90                       	nop

0000000100007ab0 <_asan.module_ctor>:
100007ab0: 55                          	pushq	%rbp
100007ab1: 48 89 e5                    	movq	%rsp, %rbp
100007ab4: e8 cb 00 00 00              	callq	0x100007b84 <_realloc+0x100007b84>
100007ab9: e8 20 01 00 00              	callq	0x100007bde <_realloc+0x100007bde>
100007abe: 48 8d 3d bb 49 00 00        	leaq	18875(%rip), %rdi       ## 0x10000c480 <____asan_globals_registered>
100007ac5: e8 cc 00 00 00              	callq	0x100007b96 <_realloc+0x100007b96>
100007aca: 5d                          	popq	%rbp
100007acb: c3                          	retq
100007acc: 0f 1f 40 00                 	nopl	(%rax)

0000000100007ad0 <_asan.module_dtor>:
100007ad0: 55                          	pushq	%rbp
100007ad1: 48 89 e5                    	movq	%rsp, %rbp
100007ad4: 48 8d 3d a5 49 00 00        	leaq	18853(%rip), %rdi       ## 0x10000c480 <____asan_globals_registered>
100007adb: e8 f8 00 00 00              	callq	0x100007bd8 <_realloc+0x100007bd8>
100007ae0: 5d                          	popq	%rbp
100007ae1: c3                          	retq
100007ae2: 90                          	nop
100007ae3: 90                          	nop
100007ae4: 90                          	nop
100007ae5: 90                          	nop
100007ae6: 90                          	nop
100007ae7: 90                          	nop
100007ae8: 90                          	nop
100007ae9: 90                          	nop
100007aea: 90                          	nop
100007aeb: 90                          	nop
100007aec: 90                          	nop
100007aed: 90                          	nop
100007aee: 90                          	nop
100007aef: 90                          	nop

0000000100007af0 <___cxx_global_var_init>:
100007af0: 55                          	pushq	%rbp
100007af1: 48 89 e5                    	movq	%rsp, %rbp
100007af4: 48 83 ec 10                 	subq	$16, %rsp
100007af8: bf 38 00 00 00              	movl	$56, %edi
100007afd: e8 12 01 00 00              	callq	0x100007c14 <_realloc+0x100007c14>
100007b02: 48 89 45 f8                 	movq	%rax, -8(%rbp)
100007b06: 48 8d 05 13 49 00 00        	leaq	18707(%rip), %rax       ## 0x10000c420 <_h>
100007b0d: 48 c1 e8 03                 	shrq	$3, %rax
100007b11: 48 b9 00 00 00 00 00 10 00 00       	movabsq	$17592186044416, %rcx ## imm = 0x100000000000
100007b1b: 48 09 c8                    	orq	%rcx, %rax
100007b1e: 80 38 00                    	cmpb	$0, (%rax)
100007b21: 0f 84 0e 00 00 00           	je	0x100007b35 <___cxx_global_var_init+0x45>
100007b27: 48 8d 3d f2 48 00 00        	leaq	18674(%rip), %rdi       ## 0x10000c420 <_h>
100007b2e: e8 87 00 00 00              	callq	0x100007bba <_realloc+0x100007bba>
100007b33: 0f 0b                       	ud2
100007b35: 48 8b 45 f8                 	movq	-8(%rbp), %rax
100007b39: 48 89 05 e0 48 00 00        	movq	%rax, 18656(%rip)       ## 0x10000c420 <_h>
100007b40: 48 83 c4 10                 	addq	$16, %rsp
100007b44: 5d                          	popq	%rbp
100007b45: c3                          	retq
100007b46: 66 2e 0f 1f 84 00 00 00 00 00       	nopw	%cs:(%rax,%rax)

0000000100007b50 <__GLOBAL__sub_I_read_tran.cpp>:
100007b50: 55                          	pushq	%rbp
100007b51: 48 89 e5                    	movq	%rsp, %rbp
100007b54: 48 8d 3d 45 01 00 00        	leaq	325(%rip), %rdi         ## 0x100007ca0 <___const.main._state+0x40>
100007b5b: e8 1e 00 00 00              	callq	0x100007b7e <_realloc+0x100007b7e>
100007b60: e8 8b ff ff ff              	callq	0x100007af0 <___cxx_global_var_init>
100007b65: e8 02 00 00 00              	callq	0x100007b6c <_realloc+0x100007b6c>
100007b6a: 5d                          	popq	%rbp
100007b6b: c3                          	retq

Disassembly of section __TEXT,__stubs:

0000000100007b6c <__stubs>:
100007b6c: ff 25 8e 04 00 00           	jmpq	*1166(%rip)             ## 0x100008000 <_realloc+0x100008000>
100007b72: ff 25 90 04 00 00           	jmpq	*1168(%rip)             ## 0x100008008 <_realloc+0x100008008>
100007b78: ff 25 92 04 00 00           	jmpq	*1170(%rip)             ## 0x100008010 <_realloc+0x100008010>
100007b7e: ff 25 94 04 00 00           	jmpq	*1172(%rip)             ## 0x100008018 <_realloc+0x100008018>
100007b84: ff 25 96 04 00 00           	jmpq	*1174(%rip)             ## 0x100008020 <_realloc+0x100008020>
100007b8a: ff 25 98 04 00 00           	jmpq	*1176(%rip)             ## 0x100008028 <_realloc+0x100008028>
100007b90: ff 25 9a 04 00 00           	jmpq	*1178(%rip)             ## 0x100008030 <_realloc+0x100008030>
100007b96: ff 25 a4 04 00 00           	jmpq	*1188(%rip)             ## 0x100008040 <_realloc+0x100008040>
100007b9c: ff 25 a6 04 00 00           	jmpq	*1190(%rip)             ## 0x100008048 <_realloc+0x100008048>
100007ba2: ff 25 a8 04 00 00           	jmpq	*1192(%rip)             ## 0x100008050 <_realloc+0x100008050>
100007ba8: ff 25 aa 04 00 00           	jmpq	*1194(%rip)             ## 0x100008058 <_realloc+0x100008058>
100007bae: ff 25 ac 04 00 00           	jmpq	*1196(%rip)             ## 0x100008060 <_realloc+0x100008060>
100007bb4: ff 25 ae 04 00 00           	jmpq	*1198(%rip)             ## 0x100008068 <_realloc+0x100008068>
100007bba: ff 25 b0 04 00 00           	jmpq	*1200(%rip)             ## 0x100008070 <_realloc+0x100008070>
100007bc0: ff 25 b2 04 00 00           	jmpq	*1202(%rip)             ## 0x100008078 <_realloc+0x100008078>
100007bc6: ff 25 b4 04 00 00           	jmpq	*1204(%rip)             ## 0x100008080 <_realloc+0x100008080>
100007bcc: ff 25 b6 04 00 00           	jmpq	*1206(%rip)             ## 0x100008088 <_realloc+0x100008088>
100007bd2: ff 25 b8 04 00 00           	jmpq	*1208(%rip)             ## 0x100008090 <_realloc+0x100008090>
100007bd8: ff 25 ba 04 00 00           	jmpq	*1210(%rip)             ## 0x100008098 <_realloc+0x100008098>
100007bde: ff 25 bc 04 00 00           	jmpq	*1212(%rip)             ## 0x1000080a0 <_realloc+0x1000080a0>
100007be4: ff 25 be 04 00 00           	jmpq	*1214(%rip)             ## 0x1000080a8 <_realloc+0x1000080a8>
100007bea: ff 25 d8 04 00 00           	jmpq	*1240(%rip)             ## 0x1000080c8 <_realloc+0x1000080c8>
100007bf0: ff 25 da 04 00 00           	jmpq	*1242(%rip)             ## 0x1000080d0 <_realloc+0x1000080d0>
100007bf6: ff 25 dc 04 00 00           	jmpq	*1244(%rip)             ## 0x1000080d8 <_realloc+0x1000080d8>
100007bfc: ff 25 de 04 00 00           	jmpq	*1246(%rip)             ## 0x1000080e0 <_realloc+0x1000080e0>
100007c02: ff 25 e0 04 00 00           	jmpq	*1248(%rip)             ## 0x1000080e8 <_realloc+0x1000080e8>
100007c08: ff 25 e2 04 00 00           	jmpq	*1250(%rip)             ## 0x1000080f0 <_realloc+0x1000080f0>
100007c0e: ff 25 e4 04 00 00           	jmpq	*1252(%rip)             ## 0x1000080f8 <_realloc+0x1000080f8>
100007c14: ff 25 e6 04 00 00           	jmpq	*1254(%rip)             ## 0x100008100 <_realloc+0x100008100>
100007c1a: ff 25 e8 04 00 00           	jmpq	*1256(%rip)             ## 0x100008108 <_realloc+0x100008108>
100007c20: ff 25 ea 04 00 00           	jmpq	*1258(%rip)             ## 0x100008110 <_realloc+0x100008110>
100007c26: ff 25 ec 04 00 00           	jmpq	*1260(%rip)             ## 0x100008118 <_realloc+0x100008118>
